
main.elf:     file format elf32-littlenios2
main.elf
architecture: nios2:r1, flags 0x00000112:
EXEC_P, HAS_SYMS, D_PAGED
start address 0x0108022c

Program Header:
    LOAD off    0x00001000 vaddr 0x01080000 paddr 0x01080000 align 2**12
         filesz 0x00000020 memsz 0x00000020 flags r-x
    LOAD off    0x00001020 vaddr 0x01080020 paddr 0x01080020 align 2**12
         filesz 0x00020d14 memsz 0x00020d14 flags r-x
    LOAD off    0x00021d34 vaddr 0x010a0d34 paddr 0x010a2a58 align 2**12
         filesz 0x00001d24 memsz 0x00001d24 flags rw-
    LOAD off    0x0002477c vaddr 0x010a477c paddr 0x010a477c align 2**12
         filesz 0x00000000 memsz 0x000007c4 flags rw-

Sections:
Idx Name          Size      VMA       LMA       File off  Algn
  0 .entry        00000020  01080000  01080000  00001000  2**5
                  CONTENTS, ALLOC, LOAD, READONLY, CODE
  1 .exceptions   0000020c  01080020  01080020  00001020  2**2
                  CONTENTS, ALLOC, LOAD, READONLY, CODE
  2 .text         0001f770  0108022c  0108022c  0000122c  2**2
                  CONTENTS, ALLOC, LOAD, READONLY, CODE
  3 .rodata       00001398  0109f99c  0109f99c  0002099c  2**2
                  CONTENTS, ALLOC, LOAD, READONLY, DATA
  4 .rwdata       00001d24  010a0d34  010a2a58  00021d34  2**2
                  CONTENTS, ALLOC, LOAD, DATA, SMALL_DATA
  5 .bss          000007c4  010a477c  010a477c  0002477c  2**2
                  ALLOC, SMALL_DATA
  6 .onchip_memory2_0 00000000  010a4f40  010a4f40  00023a58  2**0
                  CONTENTS
  7 .comment      00000023  00000000  00000000  00023a58  2**0
                  CONTENTS, READONLY
  8 .debug_aranges 00001788  00000000  00000000  00023a80  2**3
                  CONTENTS, READONLY, DEBUGGING
  9 .debug_info   0003cb98  00000000  00000000  00025208  2**0
                  CONTENTS, READONLY, DEBUGGING
 10 .debug_abbrev 0000f79b  00000000  00000000  00061da0  2**0
                  CONTENTS, READONLY, DEBUGGING
 11 .debug_line   00014323  00000000  00000000  0007153b  2**0
                  CONTENTS, READONLY, DEBUGGING
 12 .debug_frame  00003894  00000000  00000000  00085860  2**2
                  CONTENTS, READONLY, DEBUGGING
 13 .debug_str    00005411  00000000  00000000  000890f4  2**0
                  CONTENTS, READONLY, DEBUGGING
 14 .debug_loc    0002a738  00000000  00000000  0008e505  2**0
                  CONTENTS, READONLY, DEBUGGING
 15 .debug_alt_sim_info 00000010  00000000  00000000  000b8c40  2**2
                  CONTENTS, READONLY, DEBUGGING
 16 .debug_ranges 00002838  00000000  00000000  000b8c50  2**3
                  CONTENTS, READONLY, DEBUGGING
 17 .thread_model 00000003  00000000  00000000  000bff9a  2**0
                  CONTENTS, READONLY
 18 .cpu          0000000c  00000000  00000000  000bff9d  2**0
                  CONTENTS, READONLY
 19 .qsys         00000001  00000000  00000000  000bffa9  2**0
                  CONTENTS, READONLY
 20 .simulation_enabled 00000001  00000000  00000000  000bffaa  2**0
                  CONTENTS, READONLY
 21 .sysid_hash   00000004  00000000  00000000  000bffab  2**0
                  CONTENTS, READONLY
 22 .sysid_base   00000004  00000000  00000000  000bffaf  2**0
                  CONTENTS, READONLY
 23 .sysid_time   00000004  00000000  00000000  000bffb3  2**0
                  CONTENTS, READONLY
 24 .stderr_dev   00000009  00000000  00000000  000bffb7  2**0
                  CONTENTS, READONLY
 25 .stdin_dev    00000009  00000000  00000000  000bffc0  2**0
                  CONTENTS, READONLY
 26 .stdout_dev   00000009  00000000  00000000  000bffc9  2**0
                  CONTENTS, READONLY
 27 .sopc_system_name 0000000d  00000000  00000000  000bffd2  2**0
                  CONTENTS, READONLY
 28 .jdi          000046e0  00000000  00000000  000bffdf  2**0
                  CONTENTS, READONLY
 29 .sopcinfo     0008b671  00000000  00000000  000c46bf  2**0
                  CONTENTS, READONLY
SYMBOL TABLE:
01080000 l    d  .entry	00000000 .entry
01080020 l    d  .exceptions	00000000 .exceptions
0108022c l    d  .text	00000000 .text
0109f99c l    d  .rodata	00000000 .rodata
010a0d34 l    d  .rwdata	00000000 .rwdata
010a477c l    d  .bss	00000000 .bss
010a4f40 l    d  .onchip_memory2_0	00000000 .onchip_memory2_0
00000000 l    d  .comment	00000000 .comment
00000000 l    d  .debug_aranges	00000000 .debug_aranges
00000000 l    d  .debug_info	00000000 .debug_info
00000000 l    d  .debug_abbrev	00000000 .debug_abbrev
00000000 l    d  .debug_line	00000000 .debug_line
00000000 l    d  .debug_frame	00000000 .debug_frame
00000000 l    d  .debug_str	00000000 .debug_str
00000000 l    d  .debug_loc	00000000 .debug_loc
00000000 l    d  .debug_alt_sim_info	00000000 .debug_alt_sim_info
00000000 l    d  .debug_ranges	00000000 .debug_ranges
00000000 l    df *ABS*	00000000 ../bsp/obj/HAL/src/crt0.o
01080264 l       .text	00000000 alt_after_alt_main
00000000 l    df *ABS*	00000000 alt_irq_handler.c
00000000 l    df *ABS*	00000000 alt_instruction_exception_entry.c
00000000 l    df *ABS*	00000000 controller.c
010a477c l     O .bss	00000004 idx.3087
010a488c l     O .bss	00000054 PID_Pitch
010a48e0 l     O .bss	00000054 PID_Roll
010a4838 l     O .bss	00000054 PID_Yaw
010a47e4 l     O .bss	00000054 PID_Depth
010a4934 l     O .bss	00000020 motor_duty_cycle
00000000 l    df *ABS*	00000000 interrupts.c
010812d4 l     F .text	00000170 timer_interrupts
010a4784 l     O .bss	00000004 counter.2599
01081444 l     F .text	00000158 pm_interrupt
00000000 l    df *ABS*	00000000 main.c
00000000 l    df *ABS*	00000000 pid.c
00000000 l    df *ABS*	00000000 pwm_force.c
00000000 l    df *ABS*	00000000 rs232.c
0108282c l     F .text	00000100 read_interrupt
010a4790 l     O .bss	00000004 index.3182
010a4ab4 l     O .bss	00000023 buffer
010a4794 l     O .bss	00000001 initialized.3172
00000000 l    df *ABS*	00000000 utils.c
00000000 l    df *ABS*	00000000 w_atan2.c
00000000 l    df *ABS*	00000000 w_fmod.c
00000000 l    df *ABS*	00000000 w_pow.c
00000000 l    df *ABS*	00000000 w_sqrt.c
00000000 l    df *ABS*	00000000 e_atan2.c
00000000 l    df *ABS*	00000000 e_fmod.c
010a0540 l     O .rodata	00000010 Zero
00000000 l    df *ABS*	00000000 e_pow.c
010a0570 l     O .rodata	00000010 bp
010a0550 l     O .rodata	00000010 dp_l
010a0560 l     O .rodata	00000010 dp_h
00000000 l    df *ABS*	00000000 e_sqrt.c
00000000 l    df *ABS*	00000000 s_atan.c
010a05a0 l     O .rodata	00000020 atanhi
010a0580 l     O .rodata	00000020 atanlo
00000000 l    df *ABS*	00000000 s_fabs.c
00000000 l    df *ABS*	00000000 s_finite.c
00000000 l    df *ABS*	00000000 s_fpclassify.c
00000000 l    df *ABS*	00000000 s_lib_ver.c
00000000 l    df *ABS*	00000000 s_matherr.c
00000000 l    df *ABS*	00000000 s_nan.c
00000000 l    df *ABS*	00000000 s_rint.c
010a05c0 l     O .rodata	00000010 TWO52
00000000 l    df *ABS*	00000000 s_scalbn.c
00000000 l    df *ABS*	00000000 s_copysign.c
00000000 l    df *ABS*	00000000 lib2-divmod.c
01085f50 l     F .text	0000006c udivmodsi4
00000000 l    df *ABS*	00000000 lib2-divtable.c
00000000 l    df *ABS*	00000000 lib2-mul.c
00000000 l    df *ABS*	00000000 divsf3.c
00000000 l    df *ABS*	00000000 fixsfsi.c
00000000 l    df *ABS*	00000000 adddf3.c
00000000 l    df *ABS*	00000000 divdf3.c
00000000 l    df *ABS*	00000000 eqdf2.c
00000000 l    df *ABS*	00000000 gedf2.c
00000000 l    df *ABS*	00000000 ledf2.c
00000000 l    df *ABS*	00000000 muldf3.c
00000000 l    df *ABS*	00000000 subdf3.c
00000000 l    df *ABS*	00000000 fixdfsi.c
00000000 l    df *ABS*	00000000 floatsidf.c
00000000 l    df *ABS*	00000000 extendsfdf2.c
00000000 l    df *ABS*	00000000 truncdfsf2.c
00000000 l    df *ABS*	00000000 libgcc2.c
00000000 l    df *ABS*	00000000 libgcc2.c
00000000 l    df *ABS*	00000000 errno.c
00000000 l    df *ABS*	00000000 impure.c
010a0f54 l     O .rwdata	00000424 impure_data
00000000 l    df *ABS*	00000000 printf.c
00000000 l    df *ABS*	00000000 puts.c
00000000 l    df *ABS*	00000000 sprintf.c
00000000 l    df *ABS*	00000000 sscanf.c
00000000 l    df *ABS*	00000000 stdio.c
00000000 l    df *ABS*	00000000 strcmp.c
00000000 l    df *ABS*	00000000 strlen.c
00000000 l    df *ABS*	00000000 strncmp.c
00000000 l    df *ABS*	00000000 vfprintf.c
010a0716 l     O .rodata	00000010 zeroes.4240
010a0726 l     O .rodata	00000010 blanks.4239
00000000 l    df *ABS*	00000000 vfscanf.c
010a073e l     O .rodata	00000022 basefix.4191
00000000 l    df *ABS*	00000000 vfprintf.c
010a0760 l     O .rodata	00000010 zeroes.4255
0108ed64 l     F .text	000000bc __sbprintf
010a0770 l     O .rodata	00000010 blanks.4254
00000000 l    df *ABS*	00000000 writer.c
00000000 l    df *ABS*	00000000 wsetup.c
00000000 l    df *ABS*	00000000 closer.c
00000000 l    df *ABS*	00000000 ctype_.c
010a0881 l     O .rodata	00000180 _ctype_b
00000000 l    df *ABS*	00000000 dtoa.c
0108f024 l     F .text	00000228 quorem
00000000 l    df *ABS*	00000000 fflush.c
00000000 l    df *ABS*	00000000 findfp.c
01090c08 l     F .text	00000008 __fp_lock
01090c10 l     F .text	00000008 __fp_unlock
01090c24 l     F .text	0000019c __sinit.part.1
00000000 l    df *ABS*	00000000 mallocr.c
00000000 l    df *ABS*	00000000 fvwrite.c
00000000 l    df *ABS*	00000000 fwalk.c
00000000 l    df *ABS*	00000000 int_errno.c
00000000 l    df *ABS*	00000000 iswspace.c
00000000 l    df *ABS*	00000000 locale.c
010a1398 l     O .rwdata	00000020 lc_ctype_charset
010a1378 l     O .rwdata	00000020 lc_message_charset
010a13b8 l     O .rwdata	00000038 lconv
00000000 l    df *ABS*	00000000 lseekr.c
00000000 l    df *ABS*	00000000 makebuf.c
00000000 l    df *ABS*	00000000 mallocr.c
00000000 l    df *ABS*	00000000 mbrtowc.c
00000000 l    df *ABS*	00000000 mbtowc_r.c
00000000 l    df *ABS*	00000000 memchr.c
00000000 l    df *ABS*	00000000 memcpy.c
00000000 l    df *ABS*	00000000 memmove.c
00000000 l    df *ABS*	00000000 memset.c
00000000 l    df *ABS*	00000000 mprec.c
010a0a20 l     O .rodata	0000000c p05.2710
00000000 l    df *ABS*	00000000 readr.c
00000000 l    df *ABS*	00000000 mallocr.c
00000000 l    df *ABS*	00000000 sbrkr.c
00000000 l    df *ABS*	00000000 sccl.c
00000000 l    df *ABS*	00000000 sf_nan.c
00000000 l    df *ABS*	00000000 strtod.c
010942ec l     F .text	00000064 sulp
010a0b54 l     O .rodata	00000014 fpinan.2715
010a0b68 l     O .rodata	00000014 fpi.2679
010a0b7c l     O .rodata	00000028 tinytens
00000000 l    df *ABS*	00000000 strtol.c
00000000 l    df *ABS*	00000000 strtoll_r.c
00000000 l    df *ABS*	00000000 strtoul.c
00000000 l    df *ABS*	00000000 strtoull_r.c
00000000 l    df *ABS*	00000000 vfprintf.c
010a0ba4 l     O .rodata	00000010 zeroes.4184
010a0bb4 l     O .rodata	00000010 blanks.4183
00000000 l    df *ABS*	00000000 vfscanf.c
010a0bc4 l     O .rodata	00000022 basefix.3642
00000000 l    df *ABS*	00000000 ungetc.c
00000000 l    df *ABS*	00000000 vfprintf.c
01098e90 l     F .text	000000fc __sprint_r.part.0
010a0be6 l     O .rodata	00000010 zeroes.4200
010a0bf6 l     O .rodata	00000010 blanks.4199
0109a2b8 l     F .text	000000bc __sbprintf
00000000 l    df *ABS*	00000000 mallocr.c
00000000 l    df *ABS*	00000000 fclose.c
00000000 l    df *ABS*	00000000 fputwc.c
00000000 l    df *ABS*	00000000 fstatr.c
00000000 l    df *ABS*	00000000 gdtoa-gethex.c
0109a788 l     F .text	00000100 rshift
00000000 l    df *ABS*	00000000 gdtoa-hexnan.c
00000000 l    df *ABS*	00000000 isattyr.c
00000000 l    df *ABS*	00000000 wbuf.c
00000000 l    df *ABS*	00000000 wcrtomb.c
00000000 l    df *ABS*	00000000 wctomb_r.c
00000000 l    df *ABS*	00000000 libgcc2.c
00000000 l    df *ABS*	00000000 libgcc2.c
00000000 l    df *ABS*	00000000 libgcc2.c
00000000 l    df *ABS*	00000000 libgcc2.c
00000000 l    df *ABS*	00000000 eqsf2.c
00000000 l    df *ABS*	00000000 gesf2.c
00000000 l    df *ABS*	00000000 lesf2.c
00000000 l    df *ABS*	00000000 floatunsidf.c
00000000 l    df *ABS*	00000000 alt_close.c
0109c738 l     F .text	00000050 alt_get_errno
00000000 l    df *ABS*	00000000 alt_dev.c
0109c860 l     F .text	0000002c alt_dev_null_write
00000000 l    df *ABS*	00000000 alt_errno.c
00000000 l    df *ABS*	00000000 alt_fcntl.c
0109c88c l     F .text	00000050 alt_get_errno
00000000 l    df *ABS*	00000000 alt_fstat.c
0109ca04 l     F .text	00000050 alt_get_errno
00000000 l    df *ABS*	00000000 alt_getchar.c
00000000 l    df *ABS*	00000000 alt_iic.c
00000000 l    df *ABS*	00000000 alt_iic_isr_register.c
00000000 l    df *ABS*	00000000 alt_irq_vars.c
00000000 l    df *ABS*	00000000 alt_isatty.c
0109ce18 l     F .text	00000050 alt_get_errno
00000000 l    df *ABS*	00000000 alt_load.c
0109cf14 l     F .text	00000064 alt_load_section
00000000 l    df *ABS*	00000000 alt_lseek.c
0109cff8 l     F .text	00000050 alt_get_errno
00000000 l    df *ABS*	00000000 alt_main.c
00000000 l    df *ABS*	00000000 alt_malloc_lock.c
00000000 l    df *ABS*	00000000 alt_printf.c
00000000 l    df *ABS*	00000000 alt_putchar.c
00000000 l    df *ABS*	00000000 alt_putstr.c
00000000 l    df *ABS*	00000000 alt_read.c
0109d48c l     F .text	00000050 alt_get_errno
00000000 l    df *ABS*	00000000 alt_release_fd.c
00000000 l    df *ABS*	00000000 alt_sbrk.c
010a2a4c l     O .rwdata	00000004 heap_end
00000000 l    df *ABS*	00000000 alt_write.c
0109d710 l     F .text	00000050 alt_get_errno
00000000 l    df *ABS*	00000000 alt_sys_init.c
0109d860 l     F .text	00000038 alt_dev_reg
010a19a0 l     O .rwdata	00001060 jtag_uart
00000000 l    df *ABS*	00000000 altera_avalon_jtag_uart_fd.c
00000000 l    df *ABS*	00000000 altera_avalon_jtag_uart_init.c
0109db54 l     F .text	00000204 altera_avalon_jtag_uart_irq
0109dd58 l     F .text	000000a8 altera_avalon_jtag_uart_timeout
00000000 l    df *ABS*	00000000 altera_avalon_jtag_uart_ioctl.c
00000000 l    df *ABS*	00000000 altera_avalon_jtag_uart_read.c
00000000 l    df *ABS*	00000000 altera_avalon_jtag_uart_write.c
00000000 l    df *ABS*	00000000 altera_avalon_timer_sc.c
0109e378 l     F .text	00000074 alt_avalon_timer_sc_irq
00000000 l    df *ABS*	00000000 alt_alarm_start.c
00000000 l    df *ABS*	00000000 alt_dcache_flush_all.c
00000000 l    df *ABS*	00000000 alt_dev_llist_insert.c
0109e5d0 l     F .text	00000050 alt_get_errno
00000000 l    df *ABS*	00000000 alt_do_ctors.c
00000000 l    df *ABS*	00000000 alt_do_dtors.c
00000000 l    df *ABS*	00000000 alt_icache_flush_all.c
00000000 l    df *ABS*	00000000 alt_io_redirect.c
0109e834 l     F .text	000000e0 alt_open_fd
00000000 l    df *ABS*	00000000 alt_open.c
0109e98c l     F .text	00000050 alt_get_errno
0109e9dc l     F .text	000000f4 alt_file_locked
00000000 l    df *ABS*	00000000 alt_tick.c
00000000 l    df *ABS*	00000000 altera_nios2_gen2_irq.c
00000000 l    df *ABS*	00000000 alt_find_dev.c
00000000 l    df *ABS*	00000000 alt_find_file.c
00000000 l    df *ABS*	00000000 alt_get_fd.c
00000000 l    df *ABS*	00000000 atexit.c
00000000 l    df *ABS*	00000000 exit.c
00000000 l    df *ABS*	00000000 fputs.c
00000000 l    df *ABS*	00000000 getc.c
00000000 l    df *ABS*	00000000 memcmp.c
00000000 l    df *ABS*	00000000 putc.c
00000000 l    df *ABS*	00000000 rget.c
00000000 l    df *ABS*	00000000 __atexit.c
00000000 l    df *ABS*	00000000 __call_atexit.c
00000000 l    df *ABS*	00000000 refill.c
0109f778 l     F .text	0000001c lflush
00000000 l    df *ABS*	00000000 alt_exit.c
010a47d8 g     O .bss	00000004 alt_instruction_exception_handler
010a4780 g     O .bss	00000004 depth_sum
01093a94 g     F .text	00000074 _mprec_log10
01093b80 g     F .text	0000008c __any_on
0109b344 g     F .text	00000054 _isatty_r
010a0a2c g     O .rodata	00000028 __mprec_tinytens
010a4b00 g     O .bss	00000320 pwm_from_force
0109d124 g     F .text	00000078 alt_main
01088fe4 g     F .text	000000a8 _puts_r
010a4e40 g     O .bss	00000100 alt_irq
01085acc g     F .text	00000014 fabs
01091b30 g     F .text	0000005c _lseek_r
01083ab8 g     F .text	00000130 sqrt
010a2a58 g       *ABS*	00000000 __flash_rwdata_start
01087788 g     F .text	00000084 .hidden __eqdf2
010a4f40 g       *ABS*	00000000 __alt_heap_start
01088fa8 g     F .text	0000003c printf
0109b4ec g     F .text	0000009c _wcrtomb_r
010833c4 g     F .text	0000006c set_pwm_freq
01089330 g     F .text	0000005c __sseek
01090f68 g     F .text	00000010 __sinit
0109b398 g     F .text	00000138 __swbuf_r
01091a50 g     F .text	0000007c _setlocale_r
0108030c g     F .text	0000001c get_average_depth
01090dc0 g     F .text	00000078 __sfmoreglue
01098e74 g     F .text	0000001c ungetc
0109d1bc g     F .text	00000020 __malloc_unlock
010a0d34 g     O .rwdata	00000120 my_cmds
01094350 g     F .text	000015d4 _strtod_r
010860a4 g     F .text	00000450 .hidden __divsf3
01097a74 g     F .text	00000100 _sfread_r
01092930 g     F .text	0000015c memmove
01090f50 g     F .text	00000018 _cleanup
01092bb0 g     F .text	000000a8 _Balloc
010864f4 g     F .text	00000078 .hidden __fixsfsi
0109d448 g     F .text	00000044 alt_putstr
0108780c g     F .text	000000e0 .hidden __gtdf2
0109edcc g     F .text	00000020 altera_nios2_gen2_irq_init
01088f6c g     F .text	00000010 __errno
01080000 g     F .entry	0000000c __reset
0108345c g     F .text	0000004c get_pwm_freq
01080020 g       *ABS*	00000000 __flash_exceptions_start
0109a730 g     F .text	00000058 _fstat_r
01083ebc g     F .text	00000330 __ieee754_fmod
010a47ac g     O .bss	00000004 errno
0109f4bc g     F .text	00000014 __srget
010a2a04 g     O .rwdata	00000004 checksum_mode
010892ac g     F .text	00000008 __seofread
010806e4 g     F .text	000000ac set_pid_constants_roll
01096754 g     F .text	000011b8 ___svfiprintf_internal_r
010a47d0 g     O .bss	00000004 alt_argv
010aaa00 g       *ABS*	00000000 _gp
01080cb4 g     F .text	00000554 calculate_pid
0108159c g     F .text	00000010 get_user_depth
010834a8 g     F .text	00000010 get_depth
01082ffc g     F .text	000000bc alt_getline
010a1820 g     O .rwdata	00000180 alt_fd_list
01082648 g     F .text	000001e4 pwm_of_force
0109f168 g     F .text	00000070 _getc_r
0109f1d8 g     F .text	00000088 getc
010a2a00 g     O .rwdata	00000004 cmd_len
0109edec g     F .text	00000090 alt_find_dev
010927f8 g     F .text	00000138 memcpy
0109b0d8 g     F .text	0000026c __hexnan
010a4788 g     O .bss	00000004 update_pid
01090c18 g     F .text	0000000c _cleanup_r
01088b90 g     F .text	000000d0 .hidden __floatsidf
01082180 g     F .text	000000a4 PID_Output
0109e914 g     F .text	00000078 alt_io_redirect
010878ec g     F .text	000000e0 .hidden __ltdf2
0109f99c g       *ABS*	00000000 __DTOR_END__
0108908c g     F .text	00000014 puts
0109e798 g     F .text	0000009c alt_exception_cause_generated_bad_addr
01092598 g     F .text	000000d8 mbrtowc
01085afc g     F .text	00000074 __fpclassifyd
010939f0 g     F .text	000000a4 __ratio
0109a294 g     F .text	00000024 __vfiprintf_internal
0109df54 g     F .text	0000020c altera_avalon_jtag_uart_read
00000000  w      *UND*	00000000 malloc
01088f7c g     F .text	0000002c _printf_r
01080000 g       *ABS*	00000000 __alt_mem_onchip_memory2_0
0108606c g     F .text	00000008 .hidden __udivsi3
0109ce68 g     F .text	000000ac isatty
01091a20 g     F .text	00000030 iswspace
010a0a7c g     O .rodata	000000c8 __mprec_tens
01082224 g     F .text	000001e4 inverse_cubic
01091acc g     F .text	0000000c __locale_charset
0109c5dc g     F .text	000000b8 .hidden __lesf2
0109b7e0 g     F .text	00000074 .hidden __fixunsdfsi
010a47c4 g     O .bss	00000004 __malloc_top_pad
01097a04 g     F .text	00000070 __ssrefill_r
010816c8 g     F .text	000000c4 print_help
01096230 g     F .text	00000024 strtoul
010a2a1c g     O .rwdata	00000004 __mb_cur_max
01091afc g     F .text	0000000c _localeconv_r
01096254 g     F .text	00000334 _strtoull_r
01092fe4 g     F .text	0000003c __i2b
010913cc g     F .text	000004cc __sfvwrite_r
010941d0 g     F .text	00000054 _sbrk_r
01093c0c g     F .text	0000005c _read_r
010a2a40 g     O .rwdata	00000004 alt_max_fd
0109a44c g     F .text	000000f0 _fclose_r
01090bd8 g     F .text	00000030 fflush
010a47c0 g     O .bss	00000004 __malloc_max_sbrked_mem
01088c60 g     F .text	00000110 .hidden __extendsfdf2
01082ca4 g     F .text	00000054 rs232_shell
0108b608 g     F .text	000016e0 __ssvfscanf_r
0108656c g     F .text	0000089c .hidden __adddf3
0109c4b0 g     F .text	00000074 .hidden __nesf2
010a4a98 g     O .bss	0000001c power_failures
01093798 g     F .text	0000011c __b2d
0109be94 g     F .text	0000061c .hidden __umoddi3
0109d048 g     F .text	000000dc lseek
010a2a0c g     O .rwdata	00000004 __fdlib_version
010a2a10 g     O .rwdata	00000004 _global_impure_ptr
010831dc g     F .text	00000010 set_pow
01093c68 g     F .text	00000568 _realloc_r
010a4f40 g       *ABS*	00000000 __bss_end
0109cd28 g     F .text	000000f0 alt_iic_isr_register
0109cb0c g     F .text	0000003c alt_getchar
0109ecc8 g     F .text	00000104 alt_tick
010a0c06 g     O .rodata	00000100 __hexdig
0109b854 g     F .text	00000640 .hidden __udivdi3
0109a550 g     F .text	00000184 _fputwc_r
010a0a54 g     O .rodata	00000028 __mprec_bigtens
01092dc8 g     F .text	00000104 __s2b
0109c694 g     F .text	000000a4 .hidden __floatunsidf
01093540 g     F .text	00000060 __mcmp
01090f88 g     F .text	00000018 __fp_lock_all
0109ccdc g     F .text	0000004c alt_ic_irq_enabled
0109ec30 g     F .text	00000098 alt_alarm_stop
01095c8c g     F .text	00000024 strtol
010a47c8 g     O .bss	00000004 alt_irq_active
0108083c g     F .text	000000ac set_pid_constants_depth
0108178c g     F .text	00000834 process_command
010800fc g     F .exceptions	000000d0 alt_irq_handler
010a17f8 g     O .rwdata	00000028 alt_dev_null
01083430 g     F .text	0000002c get_motor_duty_cycle
01085b84 g     F .text	000001e4 rint
01080278 g     F .text	00000010 set_target_heading
0109e5b4 g     F .text	0000001c alt_dcache_flush_all
01092ecc g     F .text	00000068 __hi0bits
01088b08 g     F .text	00000088 .hidden __fixdfsi
01082948 g     F .text	00000058 rs232_init
01095924 g     F .text	0000001c strtod
010a2a58 g       *ABS*	00000000 __ram_rwdata_end
010a2a38 g     O .rwdata	00000008 alt_dev_list
0109d760 g     F .text	00000100 write
0109f2dc g     F .text	000000a0 _putc_r
01083be8 g     F .text	000002d4 __ieee754_atan2
0109c524 g     F .text	000000b8 .hidden __gtsf2
010a0d34 g       *ABS*	00000000 __ram_rodata_end
0109ca54 g     F .text	000000b8 fstat
010878ec g     F .text	000000e0 .hidden __ledf2
010932b0 g     F .text	00000140 __pow5mult
01098fa4 g     F .text	000012f0 ___vfiprintf_internal_r
010a47b8 g     O .bss	00000004 __nlocale_changed
01086074 g     F .text	00000008 .hidden __umodsi3
010a4f40 g       *ABS*	00000000 end
0109da90 g     F .text	000000c4 altera_avalon_jtag_uart_init
010801cc g     F .exceptions	00000060 alt_instruction_exception_entry
010830d4 g     F .text	000000f8 read_hex
0109f99c g       *ABS*	00000000 __CTOR_LIST__
010c0fb0 g       *ABS*	00000000 __alt_stack_pointer
0109e3ec g     F .text	00000088 alt_avalon_timer_sc_init
01088f08 g     F .text	00000064 .hidden __clzsi2
010834bc g     F .text	00000158 fmod
0109e160 g     F .text	00000218 altera_avalon_jtag_uart_write
01090f78 g     F .text	00000004 __sfp_lock_acquire
01092710 g     F .text	000000e8 memchr
0108cce8 g     F .text	00002058 ___vfprintf_internal_r
010890a0 g     F .text	00000058 _sprintf_r
010910dc g     F .text	000002f0 _free_r
0109d1dc g     F .text	00000228 alt_printf
010831cc g     F .text	00000010 print_int
01091ad8 g     F .text	00000010 __locale_mb_cur_max
0109f448 g     F .text	00000074 __srget_r
0109f5e4 g     F .text	00000194 __call_exitprocs
0109790c g     F .text	000000f8 _sungetc_r
010a47b4 g     O .bss	00000004 __mlocale_changed
010a2a20 g     O .rwdata	00000004 __malloc_sbrk_base
0108022c g     F .text	0000003c _start
010a47dc g     O .bss	00000004 _alt_tick_rate
01095cb0 g     F .text	000002f4 _strtoll_r
010933f0 g     F .text	00000150 __lshift
010834b8 g     F .text	00000004 atan2
010a47e0 g     O .bss	00000004 _alt_nticks
0109d4dc g     F .text	00000104 read
0109d8cc g     F .text	00000060 alt_sys_init
01096588 g     F .text	000001cc __ssprint_r
010829a0 g     F .text	00000040 checksum_byte
010a47a4 g     O .bss	00000008 motor_modes
0109f4d0 g     F .text	00000114 __register_exitproc
010a478c g     O .bss	00000004 enable_controller
010894d0 g     F .text	000000c0 strncmp
010a4954 g     O .bss	00000100 depth_values
01093020 g     F .text	00000290 __multiply
010841ec g     F .text	000010cc __ieee754_pow
0109de00 g     F .text	00000068 altera_avalon_jtag_uart_close
01083614 g     F .text	000004a4 pow
0108607c g     F .text	00000028 .hidden __mulsi3
010a0d34 g       *ABS*	00000000 __ram_rwdata_start
0109f99c g       *ABS*	00000000 __ram_rodata_start
010a4ad8 g     O .bss	00000028 __malloc_current_mallinfo
0109c4b0 g     F .text	00000074 .hidden __eqsf2
010938b4 g     F .text	0000013c __d2b
010832e4 g     F .text	000000e0 set_motor_duty_cycle
0109d92c g     F .text	00000060 altera_avalon_jtag_uart_read_fd
01095fa4 g     F .text	0000028c _strtoul_r
0109ef90 g     F .text	000000d4 alt_get_fd
01080474 g     F .text	000000a8 set_pid_constants
0108efd0 g     F .text	00000054 _close_r
0109f260 g     F .text	0000007c memcmp
0109d9ec g     F .text	00000050 altera_avalon_jtag_uart_close_fd
01081208 g     F .text	000000cc print_debug_controller
010a4f40 g       *ABS*	00000000 __alt_stack_base
0109da3c g     F .text	00000054 altera_avalon_jtag_uart_ioctl_fd
010a4a54 g     O .bss	00000014 current_orientation
01089164 g     F .text	0000007c sscanf
01080638 g     F .text	000000ac set_pid_constants_pitch
0108ee7c g     F .text	00000154 __swsetup_r
01082e34 g     F .text	000001c8 init
01086e08 g     F .text	00000980 .hidden __divdf3
01090e38 g     F .text	00000118 __sfp
01093b08 g     F .text	00000078 __copybits
010a13f0 g     O .rwdata	00000408 __malloc_av_
01090f84 g     F .text	00000004 __sinit_lock_release
010879cc g     F .text	0000086c .hidden __muldf3
01089258 g     F .text	00000054 __sread
0109ee7c g     F .text	00000114 alt_find_file
0109e620 g     F .text	000000a4 alt_dev_llist_insert
0109d19c g     F .text	00000020 __malloc_lock
0109d660 g     F .text	000000b0 sbrk
01089590 g     F .text	00002078 ___svfprintf_internal_r
01090b7c g     F .text	0000005c _fflush_r
0109a374 g     F .text	000000d8 _calloc_r
010a0e54 g     O .rwdata	00000100 .hidden __divsi3_table
010a477c g       *ABS*	00000000 __bss_start
010a4e20 g     O .bss	00000020 motor_duty_cycles
01092a8c g     F .text	00000124 memset
01081fc0 g     F .text	00000024 main
0108162c g     F .text	0000009c init_interrupts
010a47d4 g     O .bss	00000004 alt_envp
010a47bc g     O .bss	00000004 __malloc_max_total_mem
010831ec g     F .text	000000d8 set_motor_dir
0109d98c g     F .text	00000060 altera_avalon_jtag_uart_write_fd
0109b4d0 g     F .text	0000001c __swbuf
010a2a08 g     O .rwdata	00000004 pwm_period
0109c5dc g     F .text	000000b8 .hidden __ltsf2
0108938c g     F .text	00000008 __sclose
01085b70 g     F .text	00000008 matherr
010c0fb0 g       *ABS*	00000000 __alt_heap_limit
0109a53c g     F .text	00000014 fclose
01095a44 g     F .text	00000248 _strtol_r
01088d70 g     F .text	00000198 .hidden __truncdfsf2
0108f24c g     F .text	00001728 _dtoa_r
01091d44 g     F .text	000007a8 _malloc_r
0109b648 g     F .text	00000030 __ascii_wctomb
010a2a44 g     O .rwdata	00000004 alt_errno
01080328 g     F .text	0000014c get_orientation
01098c18 g     F .text	000000d4 __submore
010815ac g     F .text	00000080 set_controller
01082cf8 g     F .text	0000013c write_str
01091898 g     F .text	000000c4 _fwalk
010926b4 g     F .text	0000005c _mbtowc_r
0109f37c g     F .text	000000cc putc
01085fbc g     F .text	00000054 .hidden __divsi3
01090fb8 g     F .text	00000124 _malloc_trim_r
0109f99c g       *ABS*	00000000 __CTOR_END__
01085ae0 g     F .text	0000001c finite
01089394 g     F .text	000000a4 strcmp
0109f99c g       *ABS*	00000000 __flash_rodata_start
0109f99c g       *ABS*	00000000 __DTOR_LIST__
010832c4 g     F .text	00000020 get_motor_dir
01080268 g     F .text	00000010 set_target_speed
01085f34 g     F .text	0000001c copysign
01087788 g     F .text	00000084 .hidden __nedf2
01080298 g     F .text	00000074 update_depth_reading
0109d898 g     F .text	00000034 alt_irq_init
0109d5e0 g     F .text	00000080 alt_release_fd
0108554c g     F .text	00000580 atan
010890f8 g     F .text	0000006c sprintf
010a05d0 g     O .rodata	00000100 .hidden __clz_tab
010a47b0 g     O .bss	00000004 _PathLocale
01095940 g     F .text	00000104 strtof
0109f064 g     F .text	00000014 atexit
0109c524 g     F .text	000000b8 .hidden __gesf2
0108ee20 g     F .text	0000005c _write_r
01091b08 g     F .text	0000001c setlocale
010830b8 g     F .text	0000001c service_main_loop
010942e4 g     F .text	00000008 nanf
010a2a14 g     O .rwdata	00000004 _impure_ptr
010a47cc g     O .bss	00000004 alt_argc
01090974 g     F .text	00000208 __sflush_r
01085d68 g     F .text	000001cc scalbn
010924ec g     F .text	000000ac _mbrtowc_r
0109e720 g     F .text	0000005c _do_dtors
01091af4 g     F .text	00000008 __locale_cjk_lang
01080790 g     F .text	000000ac set_pid_constants_yaw
01082408 g     F .text	00000240 init_lookup
0109f794 g     F .text	000001d4 __srefill_r
01080020 g       .exceptions	00000000 alt_irq_entry
01092670 g     F .text	00000044 __ascii_mbtowc
01093738 g     F .text	00000060 __ulp
01090fa0 g     F .text	00000018 __fp_unlock_all
01082a60 g     F .text	00000244 write_cmd
01080288 g     F .text	00000010 set_target_depth
010a2a30 g     O .rwdata	00000008 alt_fs_list
01085b78 g     F .text	0000000c nan
01097b74 g     F .text	000010a4 __ssvfiscanf_r
01080020 g       *ABS*	00000000 __ram_exceptions_start
01091b24 g     F .text	0000000c localeconv
01080924 g     F .text	00000390 stabilizing_motors_force_to_pwm
010852b8 g     F .text	00000294 __ieee754_sqrt
010a47a0 g     O .bss	00000004 yaw
0109cb48 g     F .text	00000050 alt_ic_isr_register
010891e0 g     F .text	00000078 _sscanf_r
010a2a58 g       *ABS*	00000000 _edata
010a4f40 g       *ABS*	00000000 _end
010808e8 g     F .text	0000003c motor_force_to_pwm
0108022c g       *ABS*	00000000 __ram_exceptions_end
0109de68 g     F .text	000000ec altera_avalon_jtag_uart_ioctl
0109f0b0 g     F .text	0000009c _fputs_r
010a479c g     O .bss	00000004 pitch
010a4798 g     O .bss	00000004 roll
0108051c g     F .text	0000011c pid_init
0109cc38 g     F .text	000000a4 alt_ic_irq_disable
010892b4 g     F .text	0000007c __swrite
010a2a24 g     O .rwdata	00000004 __malloc_trim_threshold
01091ae8 g     F .text	0000000c __locale_msgcharset
0109f078 g     F .text	00000038 exit
0109195c g     F .text	000000c4 _fwalk_reent
010935a0 g     F .text	00000198 __mdiff
01086010 g     F .text	0000005c .hidden __modsi3
010a2a18 g     O .rwdata	00000004 __ctype_ptr__
010c0fb0 g       *ABS*	00000000 __alt_data_end
01080020 g     F .exceptions	00000000 alt_exception
01090f7c g     F .text	00000004 __sfp_lock_release
01094224 g     F .text	000000c0 __sccl
010a0780 g     O .rodata	00000101 _ctype_
010a2a28 g     O .rwdata	00000004 __mbtowc
01081fe4 g     F .text	00000030 PID_Reset
0109f968 g     F .text	00000034 _exit
0109e474 g     F .text	00000140 alt_alarm_start
0109b6d4 g     F .text	0000010c .hidden __muldi3
010a4a7c g     O .bss	0000001c old_power_failures
01091b8c g     F .text	000001b8 __smakebuf_r
01089438 g     F .text	00000098 strlen
0109ead0 g     F .text	00000160 open
0108780c g     F .text	000000e0 .hidden __gedf2
0109d404 g     F .text	00000044 alt_putchar
0109a888 g     F .text	00000850 __gethex
010a2a2c g     O .rwdata	00000004 __wctomb
01098f8c g     F .text	00000018 __sprint_r
0109e77c g     F .text	0000001c alt_icache_flush_all
0108292c g     F .text	0000001c get_imu_orientation
0109f14c g     F .text	0000001c fputs
010a2a48 g     O .rwdata	00000004 alt_priority_mask
0109cb98 g     F .text	000000a0 alt_ic_irq_enable
0108ed40 g     F .text	00000024 __vfprintf_internal
0109b678 g     F .text	0000005c _wctomb_r
01088238 g     F .text	000008d0 .hidden __subdf3
0109c8dc g     F .text	00000128 fcntl
01092f34 g     F .text	000000b0 __lo0bits
010829e0 g     F .text	00000080 checksum_short
010a2a50 g     O .rwdata	00000008 alt_alarm_list
01098cec g     F .text	00000188 _ungetc_r
0109e6c4 g     F .text	0000005c _do_ctors
01082014 g     F .text	0000016c PID_Update
0109b588 g     F .text	000000c0 wcrtomb
0109c788 g     F .text	000000d8 close
0109cf78 g     F .text	00000080 alt_load
0109a6d4 g     F .text	0000005c fputwc
00000000  w      *UND*	00000000 free
01090f80 g     F .text	00000004 __sinit_lock_acquire
01092c80 g     F .text	00000148 __multadd
01092c58 g     F .text	00000028 _Bfree
010a4a68 g     O .bss	00000014 target_orientation



Disassembly of section .entry:

01080000 <__reset>:
 1080000:	00404234 	movhi	at,264
 1080004:	08408b14 	ori	at,at,556
 1080008:	0800683a 	jmp	at
	...

Disassembly of section .exceptions:

01080020 <alt_exception>:
 1080020:	deffed04 	addi	sp,sp,-76
 1080024:	dfc00015 	stw	ra,0(sp)
 1080028:	d8400215 	stw	at,8(sp)
 108002c:	d8800315 	stw	r2,12(sp)
 1080030:	d8c00415 	stw	r3,16(sp)
 1080034:	d9000515 	stw	r4,20(sp)
 1080038:	d9400615 	stw	r5,24(sp)
 108003c:	d9800715 	stw	r6,28(sp)
 1080040:	d9c00815 	stw	r7,32(sp)
 1080044:	000b307a 	rdctl	r5,estatus
 1080048:	da000915 	stw	r8,36(sp)
 108004c:	da400a15 	stw	r9,40(sp)
 1080050:	da800b15 	stw	r10,44(sp)
 1080054:	dac00c15 	stw	r11,48(sp)
 1080058:	db000d15 	stw	r12,52(sp)
 108005c:	db400e15 	stw	r13,56(sp)
 1080060:	db800f15 	stw	r14,60(sp)
 1080064:	dbc01015 	stw	r15,64(sp)
 1080068:	d9401115 	stw	r5,68(sp)
 108006c:	ebffff04 	addi	r15,ea,-4
 1080070:	dbc01215 	stw	r15,72(sp)
 1080074:	0009313a 	rdctl	r4,ipending
 1080078:	2880004c 	andi	r2,r5,1
 108007c:	10000326 	beq	r2,zero,108008c <alt_exception+0x6c>
 1080080:	20000226 	beq	r4,zero,108008c <alt_exception+0x6c>
 1080084:	10800fc0 	call	10800fc <alt_irq_handler>
 1080088:	00000706 	br	10800a8 <alt_exception+0x88>
 108008c:	df401215 	stw	ea,72(sp)
 1080090:	e8bfff17 	ldw	r2,-4(ea)
 1080094:	e93fff04 	addi	r4,ea,-4
 1080098:	10801cc0 	call	10801cc <alt_instruction_exception_entry>
 108009c:	1000021e 	bne	r2,zero,10800a8 <alt_exception+0x88>
 10800a0:	ebffff04 	addi	r15,ea,-4
 10800a4:	dbc01215 	stw	r15,72(sp)
 10800a8:	d9401117 	ldw	r5,68(sp)
 10800ac:	df401217 	ldw	ea,72(sp)
 10800b0:	dfc00017 	ldw	ra,0(sp)
 10800b4:	2801707a 	wrctl	estatus,r5
 10800b8:	d8400217 	ldw	at,8(sp)
 10800bc:	d8800317 	ldw	r2,12(sp)
 10800c0:	d8c00417 	ldw	r3,16(sp)
 10800c4:	d9000517 	ldw	r4,20(sp)
 10800c8:	d9400617 	ldw	r5,24(sp)
 10800cc:	d9800717 	ldw	r6,28(sp)
 10800d0:	d9c00817 	ldw	r7,32(sp)
 10800d4:	da000917 	ldw	r8,36(sp)
 10800d8:	da400a17 	ldw	r9,40(sp)
 10800dc:	da800b17 	ldw	r10,44(sp)
 10800e0:	dac00c17 	ldw	r11,48(sp)
 10800e4:	db000d17 	ldw	r12,52(sp)
 10800e8:	db400e17 	ldw	r13,56(sp)
 10800ec:	db800f17 	ldw	r14,60(sp)
 10800f0:	dbc01017 	ldw	r15,64(sp)
 10800f4:	dec01304 	addi	sp,sp,76
 10800f8:	ef80083a 	eret

010800fc <alt_irq_handler>:
 10800fc:	defff904 	addi	sp,sp,-28
 1080100:	dfc00615 	stw	ra,24(sp)
 1080104:	df000515 	stw	fp,20(sp)
 1080108:	df000504 	addi	fp,sp,20
 108010c:	0001883a 	nop
 1080110:	0005313a 	rdctl	r2,ipending
 1080114:	e0bffe15 	stw	r2,-8(fp)
 1080118:	e0bffe17 	ldw	r2,-8(fp)
 108011c:	e0bffb15 	stw	r2,-20(fp)
 1080120:	e03ffd15 	stw	zero,-12(fp)
 1080124:	00800044 	movi	r2,1
 1080128:	e0bffc15 	stw	r2,-16(fp)
 108012c:	e0fffb17 	ldw	r3,-20(fp)
 1080130:	e0bffc17 	ldw	r2,-16(fp)
 1080134:	1884703a 	and	r2,r3,r2
 1080138:	10001426 	beq	r2,zero,108018c <alt_irq_handler+0x90>
 108013c:	008042b4 	movhi	r2,266
 1080140:	10939004 	addi	r2,r2,20032
 1080144:	e0fffd17 	ldw	r3,-12(fp)
 1080148:	180690fa 	slli	r3,r3,3
 108014c:	10c5883a 	add	r2,r2,r3
 1080150:	10c00017 	ldw	r3,0(r2)
 1080154:	008042b4 	movhi	r2,266
 1080158:	10939004 	addi	r2,r2,20032
 108015c:	e13ffd17 	ldw	r4,-12(fp)
 1080160:	200890fa 	slli	r4,r4,3
 1080164:	21000104 	addi	r4,r4,4
 1080168:	1105883a 	add	r2,r2,r4
 108016c:	10800017 	ldw	r2,0(r2)
 1080170:	1009883a 	mov	r4,r2
 1080174:	183ee83a 	callr	r3
 1080178:	0001883a 	nop
 108017c:	0005313a 	rdctl	r2,ipending
 1080180:	e0bfff15 	stw	r2,-4(fp)
 1080184:	e0bfff17 	ldw	r2,-4(fp)
 1080188:	00000706 	br	10801a8 <alt_irq_handler+0xac>
 108018c:	e0bffc17 	ldw	r2,-16(fp)
 1080190:	1085883a 	add	r2,r2,r2
 1080194:	e0bffc15 	stw	r2,-16(fp)
 1080198:	e0bffd17 	ldw	r2,-12(fp)
 108019c:	10800044 	addi	r2,r2,1
 10801a0:	e0bffd15 	stw	r2,-12(fp)
 10801a4:	003fe106 	br	108012c <alt_irq_handler+0x30>
 10801a8:	e0bffb15 	stw	r2,-20(fp)
 10801ac:	e0bffb17 	ldw	r2,-20(fp)
 10801b0:	103fdb1e 	bne	r2,zero,1080120 <alt_irq_handler+0x24>
 10801b4:	0001883a 	nop
 10801b8:	e037883a 	mov	sp,fp
 10801bc:	dfc00117 	ldw	ra,4(sp)
 10801c0:	df000017 	ldw	fp,0(sp)
 10801c4:	dec00204 	addi	sp,sp,8
 10801c8:	f800283a 	ret

010801cc <alt_instruction_exception_entry>:
 10801cc:	defffb04 	addi	sp,sp,-20
 10801d0:	dfc00415 	stw	ra,16(sp)
 10801d4:	df000315 	stw	fp,12(sp)
 10801d8:	df000304 	addi	fp,sp,12
 10801dc:	e13fff15 	stw	r4,-4(fp)
 10801e0:	00bfffc4 	movi	r2,-1
 10801e4:	e0bffd15 	stw	r2,-12(fp)
 10801e8:	e03ffe15 	stw	zero,-8(fp)
 10801ec:	d0a77617 	ldw	r2,-25128(gp)
 10801f0:	10000726 	beq	r2,zero,1080210 <alt_instruction_exception_entry+0x44>
 10801f4:	d0a77617 	ldw	r2,-25128(gp)
 10801f8:	e0fffd17 	ldw	r3,-12(fp)
 10801fc:	1809883a 	mov	r4,r3
 1080200:	e17fff17 	ldw	r5,-4(fp)
 1080204:	e1bffe17 	ldw	r6,-8(fp)
 1080208:	103ee83a 	callr	r2
 108020c:	00000206 	br	1080218 <alt_instruction_exception_entry+0x4c>
 1080210:	003da03a 	break	0
 1080214:	0005883a 	mov	r2,zero
 1080218:	e037883a 	mov	sp,fp
 108021c:	dfc00117 	ldw	ra,4(sp)
 1080220:	df000017 	ldw	fp,0(sp)
 1080224:	dec00204 	addi	sp,sp,8
 1080228:	f800283a 	ret

Disassembly of section .text:

0108022c <_start>:
 108022c:	06c04334 	movhi	sp,268
 1080230:	dec3ec14 	ori	sp,sp,4016
 1080234:	068042b4 	movhi	gp,266
 1080238:	d6aa8014 	ori	gp,gp,43520
 108023c:	008042b4 	movhi	r2,266
 1080240:	1091df14 	ori	r2,r2,18300
 1080244:	00c042b4 	movhi	r3,266
 1080248:	18d3d014 	ori	r3,r3,20288
 108024c:	10c00326 	beq	r2,r3,108025c <_start+0x30>
 1080250:	10000015 	stw	zero,0(r2)
 1080254:	10800104 	addi	r2,r2,4
 1080258:	10fffd36 	bltu	r2,r3,1080250 <_start+0x24>
 108025c:	109cf780 	call	109cf78 <alt_load>
 1080260:	109d1240 	call	109d124 <alt_main>

01080264 <alt_after_alt_main>:
 1080264:	003fff06 	br	1080264 <alt_after_alt_main>

01080268 <set_target_speed>:
 1080268:	008042b4 	movhi	r2,266
 108026c:	10929a04 	addi	r2,r2,19048
 1080270:	11000315 	stw	r4,12(r2)
 1080274:	f800283a 	ret

01080278 <set_target_heading>:
 1080278:	008042b4 	movhi	r2,266
 108027c:	10929a04 	addi	r2,r2,19048
 1080280:	11000015 	stw	r4,0(r2)
 1080284:	f800283a 	ret

01080288 <set_target_depth>:
 1080288:	008042b4 	movhi	r2,266
 108028c:	10929a04 	addi	r2,r2,19048
 1080290:	11000415 	stw	r4,16(r2)
 1080294:	f800283a 	ret

01080298 <update_depth_reading>:
 1080298:	d0a75f17 	ldw	r2,-25220(gp)
 108029c:	defffe04 	addi	sp,sp,-8
 10802a0:	dc000015 	stw	r16,0(sp)
 10802a4:	1085883a 	add	r2,r2,r2
 10802a8:	040042b4 	movhi	r16,266
 10802ac:	84125504 	addi	r16,r16,18772
 10802b0:	1085883a 	add	r2,r2,r2
 10802b4:	8085883a 	add	r2,r16,r2
 10802b8:	10c00017 	ldw	r3,0(r2)
 10802bc:	d0a76017 	ldw	r2,-25216(gp)
 10802c0:	dfc00115 	stw	ra,4(sp)
 10802c4:	10c5c83a 	sub	r2,r2,r3
 10802c8:	d0a76015 	stw	r2,-25216(gp)
 10802cc:	10834a80 	call	10834a8 <get_depth>
 10802d0:	d0e75f17 	ldw	r3,-25220(gp)
 10802d4:	d1676017 	ldw	r5,-25216(gp)
 10802d8:	18c9883a 	add	r4,r3,r3
 10802dc:	2109883a 	add	r4,r4,r4
 10802e0:	18c00044 	addi	r3,r3,1
 10802e4:	8109883a 	add	r4,r16,r4
 10802e8:	288b883a 	add	r5,r5,r2
 10802ec:	18c00fcc 	andi	r3,r3,63
 10802f0:	20800015 	stw	r2,0(r4)
 10802f4:	d1676015 	stw	r5,-25216(gp)
 10802f8:	d0e75f15 	stw	r3,-25220(gp)
 10802fc:	dfc00117 	ldw	ra,4(sp)
 1080300:	dc000017 	ldw	r16,0(sp)
 1080304:	dec00204 	addi	sp,sp,8
 1080308:	f800283a 	ret

0108030c <get_average_depth>:
 108030c:	d0a76017 	ldw	r2,-25216(gp)
 1080310:	10000216 	blt	r2,zero,108031c <get_average_depth+0x10>
 1080314:	1005d1ba 	srai	r2,r2,6
 1080318:	f800283a 	ret
 108031c:	10800fc4 	addi	r2,r2,63
 1080320:	1005d1ba 	srai	r2,r2,6
 1080324:	f800283a 	ret

01080328 <get_orientation>:
 1080328:	defff904 	addi	sp,sp,-28
 108032c:	dc400115 	stw	r17,4(sp)
 1080330:	2023883a 	mov	r17,r4
 1080334:	2100010f 	ldh	r4,4(r4)
 1080338:	dc800215 	stw	r18,8(sp)
 108033c:	2825883a 	mov	r18,r5
 1080340:	200b883a 	mov	r5,r4
 1080344:	dfc00615 	stw	ra,24(sp)
 1080348:	dcc00315 	stw	r19,12(sp)
 108034c:	dc000015 	stw	r16,0(sp)
 1080350:	dd400515 	stw	r21,20(sp)
 1080354:	dd000415 	stw	r20,16(sp)
 1080358:	108607c0 	call	108607c <__mulsi3>
 108035c:	8900008f 	ldh	r4,2(r17)
 1080360:	1021883a 	mov	r16,r2
 1080364:	200b883a 	mov	r5,r4
 1080368:	108607c0 	call	108607c <__mulsi3>
 108036c:	80a7883a 	add	r19,r16,r2
 1080370:	9800271e 	bne	r19,zero,1080410 <get_orientation+0xe8>
 1080374:	00801684 	movi	r2,90
 1080378:	90800115 	stw	r2,4(r18)
 108037c:	80000b1e 	bne	r16,zero,10803ac <get_orientation+0x84>
 1080380:	00801684 	movi	r2,90
 1080384:	90800215 	stw	r2,8(r18)
 1080388:	dfc00617 	ldw	ra,24(sp)
 108038c:	dd400517 	ldw	r21,20(sp)
 1080390:	dd000417 	ldw	r20,16(sp)
 1080394:	dcc00317 	ldw	r19,12(sp)
 1080398:	dc800217 	ldw	r18,8(sp)
 108039c:	dc400117 	ldw	r17,4(sp)
 10803a0:	dc000017 	ldw	r16,0(sp)
 10803a4:	dec00704 	addi	sp,sp,28
 10803a8:	f800283a 	ret
 10803ac:	8900008f 	ldh	r4,2(r17)
 10803b0:	1088b900 	call	1088b90 <__floatsidf>
 10803b4:	8409883a 	add	r4,r16,r16
 10803b8:	1027883a 	mov	r19,r2
 10803bc:	1823883a 	mov	r17,r3
 10803c0:	1088b900 	call	1088b90 <__floatsidf>
 10803c4:	1009883a 	mov	r4,r2
 10803c8:	180b883a 	mov	r5,r3
 10803cc:	1083ab80 	call	1083ab8 <sqrt>
 10803d0:	9809883a 	mov	r4,r19
 10803d4:	880b883a 	mov	r5,r17
 10803d8:	100d883a 	mov	r6,r2
 10803dc:	180f883a 	mov	r7,r3
 10803e0:	10834b80 	call	10834b8 <atan2>
 10803e4:	019999b4 	movhi	r6,26214
 10803e8:	01d01374 	movhi	r7,16461
 10803ec:	1009883a 	mov	r4,r2
 10803f0:	180b883a 	mov	r5,r3
 10803f4:	31999984 	addi	r6,r6,26214
 10803f8:	39e99984 	addi	r7,r7,-22938
 10803fc:	10879cc0 	call	10879cc <__muldf3>
 1080400:	1009883a 	mov	r4,r2
 1080404:	180b883a 	mov	r5,r3
 1080408:	1088b080 	call	1088b08 <__fixdfsi>
 108040c:	003fdd06 	br	1080384 <get_orientation+0x5c>
 1080410:	8900000f 	ldh	r4,0(r17)
 1080414:	1088b900 	call	1088b90 <__floatsidf>
 1080418:	9809883a 	mov	r4,r19
 108041c:	102b883a 	mov	r21,r2
 1080420:	1829883a 	mov	r20,r3
 1080424:	1088b900 	call	1088b90 <__floatsidf>
 1080428:	1009883a 	mov	r4,r2
 108042c:	180b883a 	mov	r5,r3
 1080430:	1083ab80 	call	1083ab8 <sqrt>
 1080434:	a809883a 	mov	r4,r21
 1080438:	a00b883a 	mov	r5,r20
 108043c:	100d883a 	mov	r6,r2
 1080440:	180f883a 	mov	r7,r3
 1080444:	10834b80 	call	10834b8 <atan2>
 1080448:	019999b4 	movhi	r6,26214
 108044c:	01d01374 	movhi	r7,16461
 1080450:	1009883a 	mov	r4,r2
 1080454:	180b883a 	mov	r5,r3
 1080458:	31999984 	addi	r6,r6,26214
 108045c:	39e99984 	addi	r7,r7,-22938
 1080460:	10879cc0 	call	10879cc <__muldf3>
 1080464:	1009883a 	mov	r4,r2
 1080468:	180b883a 	mov	r5,r3
 108046c:	1088b080 	call	1088b08 <__fixdfsi>
 1080470:	003fc106 	br	1080378 <get_orientation+0x50>

01080474 <set_pid_constants>:
 1080474:	defff604 	addi	sp,sp,-40
 1080478:	dc000015 	stw	r16,0(sp)
 108047c:	dc000e17 	ldw	r16,56(sp)
 1080480:	dd000415 	stw	r20,16(sp)
 1080484:	dcc00315 	stw	r19,12(sp)
 1080488:	dc800215 	stw	r18,8(sp)
 108048c:	dc400115 	stw	r17,4(sp)
 1080490:	dd000a17 	ldw	r20,40(sp)
 1080494:	dcc00b17 	ldw	r19,44(sp)
 1080498:	dc800c17 	ldw	r18,48(sp)
 108049c:	dc400d17 	ldw	r17,52(sp)
 10804a0:	df000815 	stw	fp,32(sp)
 10804a4:	2039883a 	mov	fp,r4
 10804a8:	8009883a 	mov	r4,r16
 10804ac:	ddc00715 	stw	r23,28(sp)
 10804b0:	dd800615 	stw	r22,24(sp)
 10804b4:	dd400515 	stw	r21,20(sp)
 10804b8:	282f883a 	mov	r23,r5
 10804bc:	302d883a 	mov	r22,r6
 10804c0:	382b883a 	mov	r21,r7
 10804c4:	dfc00915 	stw	ra,36(sp)
 10804c8:	1081fe40 	call	1081fe4 <PID_Reset>
 10804cc:	87000615 	stw	fp,24(r16)
 10804d0:	85c00715 	stw	r23,28(r16)
 10804d4:	85800815 	stw	r22,32(r16)
 10804d8:	85400915 	stw	r21,36(r16)
 10804dc:	85000a15 	stw	r20,40(r16)
 10804e0:	84c00b15 	stw	r19,44(r16)
 10804e4:	84800c15 	stw	r18,48(r16)
 10804e8:	84400d15 	stw	r17,52(r16)
 10804ec:	dfc00917 	ldw	ra,36(sp)
 10804f0:	df000817 	ldw	fp,32(sp)
 10804f4:	ddc00717 	ldw	r23,28(sp)
 10804f8:	dd800617 	ldw	r22,24(sp)
 10804fc:	dd400517 	ldw	r21,20(sp)
 1080500:	dd000417 	ldw	r20,16(sp)
 1080504:	dcc00317 	ldw	r19,12(sp)
 1080508:	dc800217 	ldw	r18,8(sp)
 108050c:	dc400117 	ldw	r17,4(sp)
 1080510:	dc000017 	ldw	r16,0(sp)
 1080514:	dec00a04 	addi	sp,sp,40
 1080518:	f800283a 	ret

0108051c <pid_init>:
 108051c:	defffb04 	addi	sp,sp,-20
 1080520:	dcc00315 	stw	r19,12(sp)
 1080524:	04c042b4 	movhi	r19,266
 1080528:	9cd22304 	addi	r19,r19,18572
 108052c:	dc800215 	stw	r18,8(sp)
 1080530:	9809883a 	mov	r4,r19
 1080534:	048042b4 	movhi	r18,266
 1080538:	94923804 	addi	r18,r18,18656
 108053c:	dfc00415 	stw	ra,16(sp)
 1080540:	dc400115 	stw	r17,4(sp)
 1080544:	dc000015 	stw	r16,0(sp)
 1080548:	1081fe40 	call	1081fe4 <PID_Reset>
 108054c:	9009883a 	mov	r4,r18
 1080550:	00900e34 	movhi	r2,16440
 1080554:	044042b4 	movhi	r17,266
 1080558:	8c520e04 	addi	r17,r17,18488
 108055c:	98800715 	stw	r2,28(r19)
 1080560:	98000615 	stw	zero,24(r19)
 1080564:	98000815 	stw	zero,32(r19)
 1080568:	98000915 	stw	zero,36(r19)
 108056c:	98000a15 	stw	zero,40(r19)
 1080570:	98000b15 	stw	zero,44(r19)
 1080574:	98000c15 	stw	zero,48(r19)
 1080578:	98000d15 	stw	zero,52(r19)
 108057c:	1081fe40 	call	1081fe4 <PID_Reset>
 1080580:	8809883a 	mov	r4,r17
 1080584:	00900cb4 	movhi	r2,16434
 1080588:	040042b4 	movhi	r16,266
 108058c:	8411f904 	addi	r16,r16,18404
 1080590:	90800715 	stw	r2,28(r18)
 1080594:	90000615 	stw	zero,24(r18)
 1080598:	90000815 	stw	zero,32(r18)
 108059c:	90000915 	stw	zero,36(r18)
 10805a0:	90000a15 	stw	zero,40(r18)
 10805a4:	90000b15 	stw	zero,44(r18)
 10805a8:	90000c15 	stw	zero,48(r18)
 10805ac:	90000d15 	stw	zero,52(r18)
 10805b0:	1081fe40 	call	1081fe4 <PID_Reset>
 10805b4:	00900a34 	movhi	r2,16424
 10805b8:	8009883a 	mov	r4,r16
 10805bc:	88800715 	stw	r2,28(r17)
 10805c0:	88000615 	stw	zero,24(r17)
 10805c4:	88000815 	stw	zero,32(r17)
 10805c8:	88000915 	stw	zero,36(r17)
 10805cc:	88000a15 	stw	zero,40(r17)
 10805d0:	88000b15 	stw	zero,44(r17)
 10805d4:	88000c15 	stw	zero,48(r17)
 10805d8:	88000d15 	stw	zero,52(r17)
 10805dc:	1081fe40 	call	1081fe4 <PID_Reset>
 10805e0:	00d00934 	movhi	r3,16420
 10805e4:	008042b4 	movhi	r2,266
 10805e8:	10929a04 	addi	r2,r2,19048
 10805ec:	80c00715 	stw	r3,28(r16)
 10805f0:	00cffc34 	movhi	r3,16368
 10805f4:	80000615 	stw	zero,24(r16)
 10805f8:	80000815 	stw	zero,32(r16)
 10805fc:	80000915 	stw	zero,36(r16)
 1080600:	80000a15 	stw	zero,40(r16)
 1080604:	80c00b15 	stw	r3,44(r16)
 1080608:	80000c15 	stw	zero,48(r16)
 108060c:	80000d15 	stw	zero,52(r16)
 1080610:	10000415 	stw	zero,16(r2)
 1080614:	10000315 	stw	zero,12(r2)
 1080618:	10000015 	stw	zero,0(r2)
 108061c:	dfc00417 	ldw	ra,16(sp)
 1080620:	dcc00317 	ldw	r19,12(sp)
 1080624:	dc800217 	ldw	r18,8(sp)
 1080628:	dc400117 	ldw	r17,4(sp)
 108062c:	dc000017 	ldw	r16,0(sp)
 1080630:	dec00504 	addi	sp,sp,20
 1080634:	10824081 	jmpi	1082408 <init_lookup>

01080638 <set_pid_constants_pitch>:
 1080638:	defff604 	addi	sp,sp,-40
 108063c:	dc000015 	stw	r16,0(sp)
 1080640:	040042b4 	movhi	r16,266
 1080644:	84122304 	addi	r16,r16,18572
 1080648:	dd000415 	stw	r20,16(sp)
 108064c:	dcc00315 	stw	r19,12(sp)
 1080650:	dc800215 	stw	r18,8(sp)
 1080654:	dc400115 	stw	r17,4(sp)
 1080658:	dd000a17 	ldw	r20,40(sp)
 108065c:	dcc00b17 	ldw	r19,44(sp)
 1080660:	dc800c17 	ldw	r18,48(sp)
 1080664:	dc400d17 	ldw	r17,52(sp)
 1080668:	df000815 	stw	fp,32(sp)
 108066c:	2039883a 	mov	fp,r4
 1080670:	8009883a 	mov	r4,r16
 1080674:	ddc00715 	stw	r23,28(sp)
 1080678:	dd800615 	stw	r22,24(sp)
 108067c:	dd400515 	stw	r21,20(sp)
 1080680:	282f883a 	mov	r23,r5
 1080684:	302d883a 	mov	r22,r6
 1080688:	382b883a 	mov	r21,r7
 108068c:	dfc00915 	stw	ra,36(sp)
 1080690:	1081fe40 	call	1081fe4 <PID_Reset>
 1080694:	87000615 	stw	fp,24(r16)
 1080698:	85c00715 	stw	r23,28(r16)
 108069c:	85800815 	stw	r22,32(r16)
 10806a0:	85400915 	stw	r21,36(r16)
 10806a4:	85000a15 	stw	r20,40(r16)
 10806a8:	84c00b15 	stw	r19,44(r16)
 10806ac:	84800c15 	stw	r18,48(r16)
 10806b0:	84400d15 	stw	r17,52(r16)
 10806b4:	dfc00917 	ldw	ra,36(sp)
 10806b8:	df000817 	ldw	fp,32(sp)
 10806bc:	ddc00717 	ldw	r23,28(sp)
 10806c0:	dd800617 	ldw	r22,24(sp)
 10806c4:	dd400517 	ldw	r21,20(sp)
 10806c8:	dd000417 	ldw	r20,16(sp)
 10806cc:	dcc00317 	ldw	r19,12(sp)
 10806d0:	dc800217 	ldw	r18,8(sp)
 10806d4:	dc400117 	ldw	r17,4(sp)
 10806d8:	dc000017 	ldw	r16,0(sp)
 10806dc:	dec00a04 	addi	sp,sp,40
 10806e0:	f800283a 	ret

010806e4 <set_pid_constants_roll>:
 10806e4:	defff604 	addi	sp,sp,-40
 10806e8:	dc000015 	stw	r16,0(sp)
 10806ec:	040042b4 	movhi	r16,266
 10806f0:	84123804 	addi	r16,r16,18656
 10806f4:	dd000415 	stw	r20,16(sp)
 10806f8:	dcc00315 	stw	r19,12(sp)
 10806fc:	dc800215 	stw	r18,8(sp)
 1080700:	dc400115 	stw	r17,4(sp)
 1080704:	dd000a17 	ldw	r20,40(sp)
 1080708:	dcc00b17 	ldw	r19,44(sp)
 108070c:	dc800c17 	ldw	r18,48(sp)
 1080710:	dc400d17 	ldw	r17,52(sp)
 1080714:	df000815 	stw	fp,32(sp)
 1080718:	2039883a 	mov	fp,r4
 108071c:	8009883a 	mov	r4,r16
 1080720:	ddc00715 	stw	r23,28(sp)
 1080724:	dd800615 	stw	r22,24(sp)
 1080728:	dd400515 	stw	r21,20(sp)
 108072c:	282f883a 	mov	r23,r5
 1080730:	302d883a 	mov	r22,r6
 1080734:	382b883a 	mov	r21,r7
 1080738:	dfc00915 	stw	ra,36(sp)
 108073c:	1081fe40 	call	1081fe4 <PID_Reset>
 1080740:	87000615 	stw	fp,24(r16)
 1080744:	85c00715 	stw	r23,28(r16)
 1080748:	85800815 	stw	r22,32(r16)
 108074c:	85400915 	stw	r21,36(r16)
 1080750:	85000a15 	stw	r20,40(r16)
 1080754:	84c00b15 	stw	r19,44(r16)
 1080758:	84800c15 	stw	r18,48(r16)
 108075c:	84400d15 	stw	r17,52(r16)
 1080760:	dfc00917 	ldw	ra,36(sp)
 1080764:	df000817 	ldw	fp,32(sp)
 1080768:	ddc00717 	ldw	r23,28(sp)
 108076c:	dd800617 	ldw	r22,24(sp)
 1080770:	dd400517 	ldw	r21,20(sp)
 1080774:	dd000417 	ldw	r20,16(sp)
 1080778:	dcc00317 	ldw	r19,12(sp)
 108077c:	dc800217 	ldw	r18,8(sp)
 1080780:	dc400117 	ldw	r17,4(sp)
 1080784:	dc000017 	ldw	r16,0(sp)
 1080788:	dec00a04 	addi	sp,sp,40
 108078c:	f800283a 	ret

01080790 <set_pid_constants_yaw>:
 1080790:	defff604 	addi	sp,sp,-40
 1080794:	dc000015 	stw	r16,0(sp)
 1080798:	040042b4 	movhi	r16,266
 108079c:	84120e04 	addi	r16,r16,18488
 10807a0:	dd000415 	stw	r20,16(sp)
 10807a4:	dcc00315 	stw	r19,12(sp)
 10807a8:	dc800215 	stw	r18,8(sp)
 10807ac:	dc400115 	stw	r17,4(sp)
 10807b0:	dd000a17 	ldw	r20,40(sp)
 10807b4:	dcc00b17 	ldw	r19,44(sp)
 10807b8:	dc800c17 	ldw	r18,48(sp)
 10807bc:	dc400d17 	ldw	r17,52(sp)
 10807c0:	df000815 	stw	fp,32(sp)
 10807c4:	2039883a 	mov	fp,r4
 10807c8:	8009883a 	mov	r4,r16
 10807cc:	ddc00715 	stw	r23,28(sp)
 10807d0:	dd800615 	stw	r22,24(sp)
 10807d4:	dd400515 	stw	r21,20(sp)
 10807d8:	282f883a 	mov	r23,r5
 10807dc:	302d883a 	mov	r22,r6
 10807e0:	382b883a 	mov	r21,r7
 10807e4:	dfc00915 	stw	ra,36(sp)
 10807e8:	1081fe40 	call	1081fe4 <PID_Reset>
 10807ec:	87000615 	stw	fp,24(r16)
 10807f0:	85c00715 	stw	r23,28(r16)
 10807f4:	85800815 	stw	r22,32(r16)
 10807f8:	85400915 	stw	r21,36(r16)
 10807fc:	85000a15 	stw	r20,40(r16)
 1080800:	84c00b15 	stw	r19,44(r16)
 1080804:	84800c15 	stw	r18,48(r16)
 1080808:	84400d15 	stw	r17,52(r16)
 108080c:	dfc00917 	ldw	ra,36(sp)
 1080810:	df000817 	ldw	fp,32(sp)
 1080814:	ddc00717 	ldw	r23,28(sp)
 1080818:	dd800617 	ldw	r22,24(sp)
 108081c:	dd400517 	ldw	r21,20(sp)
 1080820:	dd000417 	ldw	r20,16(sp)
 1080824:	dcc00317 	ldw	r19,12(sp)
 1080828:	dc800217 	ldw	r18,8(sp)
 108082c:	dc400117 	ldw	r17,4(sp)
 1080830:	dc000017 	ldw	r16,0(sp)
 1080834:	dec00a04 	addi	sp,sp,40
 1080838:	f800283a 	ret

0108083c <set_pid_constants_depth>:
 108083c:	defff604 	addi	sp,sp,-40
 1080840:	dc000015 	stw	r16,0(sp)
 1080844:	040042b4 	movhi	r16,266
 1080848:	8411f904 	addi	r16,r16,18404
 108084c:	dd000415 	stw	r20,16(sp)
 1080850:	dcc00315 	stw	r19,12(sp)
 1080854:	dc800215 	stw	r18,8(sp)
 1080858:	dc400115 	stw	r17,4(sp)
 108085c:	dd000a17 	ldw	r20,40(sp)
 1080860:	dcc00b17 	ldw	r19,44(sp)
 1080864:	dc800c17 	ldw	r18,48(sp)
 1080868:	dc400d17 	ldw	r17,52(sp)
 108086c:	df000815 	stw	fp,32(sp)
 1080870:	2039883a 	mov	fp,r4
 1080874:	8009883a 	mov	r4,r16
 1080878:	ddc00715 	stw	r23,28(sp)
 108087c:	dd800615 	stw	r22,24(sp)
 1080880:	dd400515 	stw	r21,20(sp)
 1080884:	282f883a 	mov	r23,r5
 1080888:	302d883a 	mov	r22,r6
 108088c:	382b883a 	mov	r21,r7
 1080890:	dfc00915 	stw	ra,36(sp)
 1080894:	1081fe40 	call	1081fe4 <PID_Reset>
 1080898:	87000615 	stw	fp,24(r16)
 108089c:	85c00715 	stw	r23,28(r16)
 10808a0:	85800815 	stw	r22,32(r16)
 10808a4:	85400915 	stw	r21,36(r16)
 10808a8:	85000a15 	stw	r20,40(r16)
 10808ac:	84c00b15 	stw	r19,44(r16)
 10808b0:	84800c15 	stw	r18,48(r16)
 10808b4:	84400d15 	stw	r17,52(r16)
 10808b8:	dfc00917 	ldw	ra,36(sp)
 10808bc:	df000817 	ldw	fp,32(sp)
 10808c0:	ddc00717 	ldw	r23,28(sp)
 10808c4:	dd800617 	ldw	r22,24(sp)
 10808c8:	dd400517 	ldw	r21,20(sp)
 10808cc:	dd000417 	ldw	r20,16(sp)
 10808d0:	dcc00317 	ldw	r19,12(sp)
 10808d4:	dc800217 	ldw	r18,8(sp)
 10808d8:	dc400117 	ldw	r17,4(sp)
 10808dc:	dc000017 	ldw	r16,0(sp)
 10808e0:	dec00a04 	addi	sp,sp,40
 10808e4:	f800283a 	ret

010808e8 <motor_force_to_pwm>:
 10808e8:	0191ebb4 	movhi	r6,18350
 10808ec:	01cfdd34 	movhi	r7,16244
 10808f0:	deffff04 	addi	sp,sp,-4
 10808f4:	31851ec4 	addi	r6,r6,5243
 10808f8:	39deb844 	addi	r7,r7,31457
 10808fc:	dfc00015 	stw	ra,0(sp)
 1080900:	10879cc0 	call	10879cc <__muldf3>
 1080904:	180b883a 	mov	r5,r3
 1080908:	1009883a 	mov	r4,r2
 108090c:	10826480 	call	1082648 <pwm_of_force>
 1080910:	11008004 	addi	r4,r2,512
 1080914:	1088b900 	call	1088b90 <__floatsidf>
 1080918:	dfc00017 	ldw	ra,0(sp)
 108091c:	dec00104 	addi	sp,sp,4
 1080920:	f800283a 	ret

01080924 <stabilizing_motors_force_to_pwm>:
 1080924:	defff004 	addi	sp,sp,-64
 1080928:	00800284 	movi	r2,10
 108092c:	df000e15 	stw	fp,56(sp)
 1080930:	ddc00d15 	stw	r23,52(sp)
 1080934:	dd800c15 	stw	r22,48(sp)
 1080938:	dd400b15 	stw	r21,44(sp)
 108093c:	dd000a15 	stw	r20,40(sp)
 1080940:	dcc00915 	stw	r19,36(sp)
 1080944:	dc800815 	stw	r18,32(sp)
 1080948:	dc400715 	stw	r17,28(sp)
 108094c:	dc000615 	stw	r16,24(sp)
 1080950:	dfc00f15 	stw	ra,60(sp)
 1080954:	df001017 	ldw	fp,64(sp)
 1080958:	ddc01117 	ldw	r23,68(sp)
 108095c:	dd801217 	ldw	r22,72(sp)
 1080960:	dd401317 	ldw	r21,76(sp)
 1080964:	dc001417 	ldw	r16,80(sp)
 1080968:	2029883a 	mov	r20,r4
 108096c:	2827883a 	mov	r19,r5
 1080970:	3025883a 	mov	r18,r6
 1080974:	3823883a 	mov	r17,r7
 1080978:	d8800015 	stw	r2,0(sp)
 108097c:	d8000305 	stb	zero,12(sp)
 1080980:	00006b06 	br	1080b30 <stabilizing_motors_force_to_pwm+0x20c>
 1080984:	01a666b4 	movhi	r6,39322
 1080988:	01d022b4 	movhi	r7,16522
 108098c:	31a66684 	addi	r6,r6,-26214
 1080990:	39e66644 	addi	r7,r7,-26215
 1080994:	4009883a 	mov	r4,r8
 1080998:	180b883a 	mov	r5,r3
 108099c:	108780c0 	call	108780c <__gedf2>
 10809a0:	00803816 	blt	zero,r2,1080a84 <stabilizing_motors_force_to_pwm+0x160>
 10809a4:	d8801517 	ldw	r2,84(sp)
 10809a8:	000d883a 	mov	r6,zero
 10809ac:	000f883a 	mov	r7,zero
 10809b0:	12000017 	ldw	r8,0(r2)
 10809b4:	10c00117 	ldw	r3,4(r2)
 10809b8:	4009883a 	mov	r4,r8
 10809bc:	180b883a 	mov	r5,r3
 10809c0:	d8c00515 	stw	r3,20(sp)
 10809c4:	da000415 	stw	r8,16(sp)
 10809c8:	108780c0 	call	108780c <__gedf2>
 10809cc:	d8c00517 	ldw	r3,20(sp)
 10809d0:	da000417 	ldw	r8,16(sp)
 10809d4:	0080a20e 	bge	zero,r2,1080c60 <stabilizing_motors_force_to_pwm+0x33c>
 10809d8:	01a666b4 	movhi	r6,39322
 10809dc:	01d022b4 	movhi	r7,16522
 10809e0:	31a66684 	addi	r6,r6,-26214
 10809e4:	39e66644 	addi	r7,r7,-26215
 10809e8:	4009883a 	mov	r4,r8
 10809ec:	180b883a 	mov	r5,r3
 10809f0:	108780c0 	call	108780c <__gedf2>
 10809f4:	00802316 	blt	zero,r2,1080a84 <stabilizing_motors_force_to_pwm+0x160>
 10809f8:	d8c01617 	ldw	r3,88(sp)
 10809fc:	000d883a 	mov	r6,zero
 1080a00:	000f883a 	mov	r7,zero
 1080a04:	1a000017 	ldw	r8,0(r3)
 1080a08:	18c00117 	ldw	r3,4(r3)
 1080a0c:	4009883a 	mov	r4,r8
 1080a10:	180b883a 	mov	r5,r3
 1080a14:	d8c00515 	stw	r3,20(sp)
 1080a18:	da000415 	stw	r8,16(sp)
 1080a1c:	108780c0 	call	108780c <__gedf2>
 1080a20:	d8c00517 	ldw	r3,20(sp)
 1080a24:	da000417 	ldw	r8,16(sp)
 1080a28:	00809c0e 	bge	zero,r2,1080c9c <stabilizing_motors_force_to_pwm+0x378>
 1080a2c:	01a666b4 	movhi	r6,39322
 1080a30:	01d022b4 	movhi	r7,16522
 1080a34:	31a66684 	addi	r6,r6,-26214
 1080a38:	39e66644 	addi	r7,r7,-26215
 1080a3c:	4009883a 	mov	r4,r8
 1080a40:	180b883a 	mov	r5,r3
 1080a44:	108780c0 	call	108780c <__gedf2>
 1080a48:	00800e16 	blt	zero,r2,1080a84 <stabilizing_motors_force_to_pwm+0x160>
 1080a4c:	d9000217 	ldw	r4,8(sp)
 1080a50:	d9400117 	ldw	r5,4(sp)
 1080a54:	000d883a 	mov	r6,zero
 1080a58:	000f883a 	mov	r7,zero
 1080a5c:	108780c0 	call	108780c <__gedf2>
 1080a60:	0080900e 	bge	zero,r2,1080ca4 <stabilizing_motors_force_to_pwm+0x380>
 1080a64:	d9000217 	ldw	r4,8(sp)
 1080a68:	d9400117 	ldw	r5,4(sp)
 1080a6c:	01a666b4 	movhi	r6,39322
 1080a70:	01d022b4 	movhi	r7,16522
 1080a74:	31a66684 	addi	r6,r6,-26214
 1080a78:	39e66644 	addi	r7,r7,-26215
 1080a7c:	108780c0 	call	108780c <__gedf2>
 1080a80:	0080790e 	bge	zero,r2,1080c68 <stabilizing_motors_force_to_pwm+0x344>
 1080a84:	018cccf4 	movhi	r6,13107
 1080a88:	01cffaf4 	movhi	r7,16363
 1080a8c:	a009883a 	mov	r4,r20
 1080a90:	980b883a 	mov	r5,r19
 1080a94:	318cccc4 	addi	r6,r6,13107
 1080a98:	39ccccc4 	addi	r7,r7,13107
 1080a9c:	10879cc0 	call	10879cc <__muldf3>
 1080aa0:	1029883a 	mov	r20,r2
 1080aa4:	d8800017 	ldw	r2,0(sp)
 1080aa8:	018cccf4 	movhi	r6,13107
 1080aac:	01cffaf4 	movhi	r7,16363
 1080ab0:	9009883a 	mov	r4,r18
 1080ab4:	880b883a 	mov	r5,r17
 1080ab8:	318cccc4 	addi	r6,r6,13107
 1080abc:	39ccccc4 	addi	r7,r7,13107
 1080ac0:	10bfffc4 	addi	r2,r2,-1
 1080ac4:	1827883a 	mov	r19,r3
 1080ac8:	00c00044 	movi	r3,1
 1080acc:	d8800015 	stw	r2,0(sp)
 1080ad0:	d8c00305 	stb	r3,12(sp)
 1080ad4:	10879cc0 	call	10879cc <__muldf3>
 1080ad8:	018cccf4 	movhi	r6,13107
 1080adc:	01cffaf4 	movhi	r7,16363
 1080ae0:	e009883a 	mov	r4,fp
 1080ae4:	b80b883a 	mov	r5,r23
 1080ae8:	318cccc4 	addi	r6,r6,13107
 1080aec:	39ccccc4 	addi	r7,r7,13107
 1080af0:	1025883a 	mov	r18,r2
 1080af4:	1823883a 	mov	r17,r3
 1080af8:	10879cc0 	call	10879cc <__muldf3>
 1080afc:	018cccf4 	movhi	r6,13107
 1080b00:	01cffaf4 	movhi	r7,16363
 1080b04:	b009883a 	mov	r4,r22
 1080b08:	a80b883a 	mov	r5,r21
 1080b0c:	318cccc4 	addi	r6,r6,13107
 1080b10:	39ccccc4 	addi	r7,r7,13107
 1080b14:	1039883a 	mov	fp,r2
 1080b18:	182f883a 	mov	r23,r3
 1080b1c:	10879cc0 	call	10879cc <__muldf3>
 1080b20:	d9000017 	ldw	r4,0(sp)
 1080b24:	102d883a 	mov	r22,r2
 1080b28:	182b883a 	mov	r21,r3
 1080b2c:	20004e26 	beq	r4,zero,1080c68 <stabilizing_motors_force_to_pwm+0x344>
 1080b30:	0191ebb4 	movhi	r6,18350
 1080b34:	01cfdd34 	movhi	r7,16244
 1080b38:	31851ec4 	addi	r6,r6,5243
 1080b3c:	39deb844 	addi	r7,r7,31457
 1080b40:	a009883a 	mov	r4,r20
 1080b44:	980b883a 	mov	r5,r19
 1080b48:	10879cc0 	call	10879cc <__muldf3>
 1080b4c:	180b883a 	mov	r5,r3
 1080b50:	1009883a 	mov	r4,r2
 1080b54:	10826480 	call	1082648 <pwm_of_force>
 1080b58:	11008004 	addi	r4,r2,512
 1080b5c:	1088b900 	call	1088b90 <__floatsidf>
 1080b60:	0191ebb4 	movhi	r6,18350
 1080b64:	01cfdd34 	movhi	r7,16244
 1080b68:	31851ec4 	addi	r6,r6,5243
 1080b6c:	39deb844 	addi	r7,r7,31457
 1080b70:	9009883a 	mov	r4,r18
 1080b74:	880b883a 	mov	r5,r17
 1080b78:	80800015 	stw	r2,0(r16)
 1080b7c:	80c00115 	stw	r3,4(r16)
 1080b80:	10879cc0 	call	10879cc <__muldf3>
 1080b84:	180b883a 	mov	r5,r3
 1080b88:	1009883a 	mov	r4,r2
 1080b8c:	10826480 	call	1082648 <pwm_of_force>
 1080b90:	11008004 	addi	r4,r2,512
 1080b94:	1088b900 	call	1088b90 <__floatsidf>
 1080b98:	d9001517 	ldw	r4,84(sp)
 1080b9c:	0191ebb4 	movhi	r6,18350
 1080ba0:	01cfdd34 	movhi	r7,16244
 1080ba4:	31851ec4 	addi	r6,r6,5243
 1080ba8:	39deb844 	addi	r7,r7,31457
 1080bac:	20800015 	stw	r2,0(r4)
 1080bb0:	20c00115 	stw	r3,4(r4)
 1080bb4:	b80b883a 	mov	r5,r23
 1080bb8:	e009883a 	mov	r4,fp
 1080bbc:	10879cc0 	call	10879cc <__muldf3>
 1080bc0:	180b883a 	mov	r5,r3
 1080bc4:	1009883a 	mov	r4,r2
 1080bc8:	10826480 	call	1082648 <pwm_of_force>
 1080bcc:	11008004 	addi	r4,r2,512
 1080bd0:	1088b900 	call	1088b90 <__floatsidf>
 1080bd4:	d9001617 	ldw	r4,88(sp)
 1080bd8:	0191ebb4 	movhi	r6,18350
 1080bdc:	01cfdd34 	movhi	r7,16244
 1080be0:	31851ec4 	addi	r6,r6,5243
 1080be4:	39deb844 	addi	r7,r7,31457
 1080be8:	20800015 	stw	r2,0(r4)
 1080bec:	20c00115 	stw	r3,4(r4)
 1080bf0:	a80b883a 	mov	r5,r21
 1080bf4:	b009883a 	mov	r4,r22
 1080bf8:	10879cc0 	call	10879cc <__muldf3>
 1080bfc:	180b883a 	mov	r5,r3
 1080c00:	1009883a 	mov	r4,r2
 1080c04:	10826480 	call	1082648 <pwm_of_force>
 1080c08:	11008004 	addi	r4,r2,512
 1080c0c:	1088b900 	call	1088b90 <__floatsidf>
 1080c10:	d8c00115 	stw	r3,4(sp)
 1080c14:	d9000117 	ldw	r4,4(sp)
 1080c18:	d8c01717 	ldw	r3,92(sp)
 1080c1c:	000d883a 	mov	r6,zero
 1080c20:	000f883a 	mov	r7,zero
 1080c24:	19000115 	stw	r4,4(r3)
 1080c28:	18800015 	stw	r2,0(r3)
 1080c2c:	82000017 	ldw	r8,0(r16)
 1080c30:	80c00117 	ldw	r3,4(r16)
 1080c34:	d8800215 	stw	r2,8(sp)
 1080c38:	4009883a 	mov	r4,r8
 1080c3c:	180b883a 	mov	r5,r3
 1080c40:	d8c00515 	stw	r3,20(sp)
 1080c44:	da000415 	stw	r8,16(sp)
 1080c48:	108780c0 	call	108780c <__gedf2>
 1080c4c:	d8c00517 	ldw	r3,20(sp)
 1080c50:	da000417 	ldw	r8,16(sp)
 1080c54:	00bf4b16 	blt	zero,r2,1080984 <stabilizing_motors_force_to_pwm+0x60>
 1080c58:	18e0003c 	xorhi	r3,r3,32768
 1080c5c:	003f4906 	br	1080984 <stabilizing_motors_force_to_pwm+0x60>
 1080c60:	18e0003c 	xorhi	r3,r3,32768
 1080c64:	003f5c06 	br	10809d8 <stabilizing_motors_force_to_pwm+0xb4>
 1080c68:	d8800303 	ldbu	r2,12(sp)
 1080c6c:	dfc00f17 	ldw	ra,60(sp)
 1080c70:	df000e17 	ldw	fp,56(sp)
 1080c74:	ddc00d17 	ldw	r23,52(sp)
 1080c78:	dd800c17 	ldw	r22,48(sp)
 1080c7c:	dd400b17 	ldw	r21,44(sp)
 1080c80:	dd000a17 	ldw	r20,40(sp)
 1080c84:	dcc00917 	ldw	r19,36(sp)
 1080c88:	dc800817 	ldw	r18,32(sp)
 1080c8c:	dc400717 	ldw	r17,28(sp)
 1080c90:	dc000617 	ldw	r16,24(sp)
 1080c94:	dec01004 	addi	sp,sp,64
 1080c98:	f800283a 	ret
 1080c9c:	18e0003c 	xorhi	r3,r3,32768
 1080ca0:	003f6206 	br	1080a2c <stabilizing_motors_force_to_pwm+0x108>
 1080ca4:	d8c00117 	ldw	r3,4(sp)
 1080ca8:	18e0003c 	xorhi	r3,r3,32768
 1080cac:	d8c00115 	stw	r3,4(sp)
 1080cb0:	003f6c06 	br	1080a64 <stabilizing_motors_force_to_pwm+0x140>

01080cb4 <calculate_pid>:
 1080cb4:	010042b4 	movhi	r4,266
 1080cb8:	deffd604 	addi	sp,sp,-168
 1080cbc:	21129504 	addi	r4,r4,19028
 1080cc0:	dc002015 	stw	r16,128(sp)
 1080cc4:	dfc02915 	stw	ra,164(sp)
 1080cc8:	2021883a 	mov	r16,r4
 1080ccc:	df002815 	stw	fp,160(sp)
 1080cd0:	ddc02715 	stw	r23,156(sp)
 1080cd4:	dd802615 	stw	r22,152(sp)
 1080cd8:	dd402515 	stw	r21,148(sp)
 1080cdc:	dd002415 	stw	r20,144(sp)
 1080ce0:	dcc02315 	stw	r19,140(sp)
 1080ce4:	dc802215 	stw	r18,136(sp)
 1080ce8:	dc402115 	stw	r17,132(sp)
 1080cec:	108292c0 	call	108292c <get_imu_orientation>
 1080cf0:	d0a76017 	ldw	r2,-25216(gp)
 1080cf4:	8007883a 	mov	r3,r16
 1080cf8:	10014116 	blt	r2,zero,1081200 <calculate_pid+0x54c>
 1080cfc:	1005d1ba 	srai	r2,r2,6
 1080d00:	81000217 	ldw	r4,8(r16)
 1080d04:	04c042b4 	movhi	r19,266
 1080d08:	18800415 	stw	r2,16(r3)
 1080d0c:	1088b900 	call	1088b90 <__floatsidf>
 1080d10:	010042b4 	movhi	r4,266
 1080d14:	100b883a 	mov	r5,r2
 1080d18:	180d883a 	mov	r6,r3
 1080d1c:	21123804 	addi	r4,r4,18656
 1080d20:	10820140 	call	1082014 <PID_Update>
 1080d24:	81000117 	ldw	r4,4(r16)
 1080d28:	9cd29a04 	addi	r19,r19,19048
 1080d2c:	1088b900 	call	1088b90 <__floatsidf>
 1080d30:	010042b4 	movhi	r4,266
 1080d34:	100b883a 	mov	r5,r2
 1080d38:	180d883a 	mov	r6,r3
 1080d3c:	21122304 	addi	r4,r4,18572
 1080d40:	10820140 	call	1082014 <PID_Update>
 1080d44:	80800017 	ldw	r2,0(r16)
 1080d48:	99000017 	ldw	r4,0(r19)
 1080d4c:	2089c83a 	sub	r4,r4,r2
 1080d50:	1088b900 	call	1088b90 <__floatsidf>
 1080d54:	01d01df4 	movhi	r7,16503
 1080d58:	1009883a 	mov	r4,r2
 1080d5c:	180b883a 	mov	r5,r3
 1080d60:	39e00004 	addi	r7,r7,-32768
 1080d64:	000d883a 	mov	r6,zero
 1080d68:	10834bc0 	call	10834bc <fmod>
 1080d6c:	01d019f4 	movhi	r7,16487
 1080d70:	1009883a 	mov	r4,r2
 1080d74:	180b883a 	mov	r5,r3
 1080d78:	39e00004 	addi	r7,r7,-32768
 1080d7c:	000d883a 	mov	r6,zero
 1080d80:	1025883a 	mov	r18,r2
 1080d84:	1823883a 	mov	r17,r3
 1080d88:	108780c0 	call	108780c <__gedf2>
 1080d8c:	00810a0e 	bge	zero,r2,10811b8 <calculate_pid+0x504>
 1080d90:	01d01df4 	movhi	r7,16503
 1080d94:	9009883a 	mov	r4,r18
 1080d98:	880b883a 	mov	r5,r17
 1080d9c:	39e00004 	addi	r7,r7,-32768
 1080da0:	000d883a 	mov	r6,zero
 1080da4:	10882380 	call	1088238 <__subdf3>
 1080da8:	1025883a 	mov	r18,r2
 1080dac:	1823883a 	mov	r17,r3
 1080db0:	010042b4 	movhi	r4,266
 1080db4:	900b883a 	mov	r5,r18
 1080db8:	880d883a 	mov	r6,r17
 1080dbc:	21120e04 	addi	r4,r4,18488
 1080dc0:	10820140 	call	1082014 <PID_Update>
 1080dc4:	99000417 	ldw	r4,16(r19)
 1080dc8:	80800417 	ldw	r2,16(r16)
 1080dcc:	2089c83a 	sub	r4,r4,r2
 1080dd0:	1088b900 	call	1088b90 <__floatsidf>
 1080dd4:	010042b4 	movhi	r4,266
 1080dd8:	180d883a 	mov	r6,r3
 1080ddc:	100b883a 	mov	r5,r2
 1080de0:	2111f904 	addi	r4,r4,18404
 1080de4:	10820140 	call	1082014 <PID_Update>
 1080de8:	010042b4 	movhi	r4,266
 1080dec:	21123804 	addi	r4,r4,18656
 1080df0:	10821800 	call	1082180 <PID_Output>
 1080df4:	010042b4 	movhi	r4,266
 1080df8:	21122304 	addi	r4,r4,18572
 1080dfc:	1039883a 	mov	fp,r2
 1080e00:	182f883a 	mov	r23,r3
 1080e04:	10821800 	call	1082180 <PID_Output>
 1080e08:	010042b4 	movhi	r4,266
 1080e0c:	2111f904 	addi	r4,r4,18404
 1080e10:	d8801815 	stw	r2,96(sp)
 1080e14:	d8c01b15 	stw	r3,108(sp)
 1080e18:	10821800 	call	1082180 <PID_Output>
 1080e1c:	010042b4 	movhi	r4,266
 1080e20:	21120e04 	addi	r4,r4,18488
 1080e24:	1025883a 	mov	r18,r2
 1080e28:	1823883a 	mov	r17,r3
 1080e2c:	10821800 	call	1082180 <PID_Output>
 1080e30:	99000317 	ldw	r4,12(r19)
 1080e34:	01400144 	movi	r5,5
 1080e38:	182b883a 	mov	r21,r3
 1080e3c:	102d883a 	mov	r22,r2
 1080e40:	108607c0 	call	108607c <__mulsi3>
 1080e44:	1009883a 	mov	r4,r2
 1080e48:	1088b900 	call	1088b90 <__floatsidf>
 1080e4c:	019999b4 	movhi	r6,26214
 1080e50:	01cff9b4 	movhi	r7,16358
 1080e54:	1009883a 	mov	r4,r2
 1080e58:	180b883a 	mov	r5,r3
 1080e5c:	31999984 	addi	r6,r6,26214
 1080e60:	39d99984 	addi	r7,r7,26214
 1080e64:	10879cc0 	call	10879cc <__muldf3>
 1080e68:	01a666b4 	movhi	r6,39322
 1080e6c:	01cff2b4 	movhi	r7,16330
 1080e70:	b009883a 	mov	r4,r22
 1080e74:	a80b883a 	mov	r5,r21
 1080e78:	31a66684 	addi	r6,r6,-26214
 1080e7c:	39e66644 	addi	r7,r7,-26215
 1080e80:	1029883a 	mov	r20,r2
 1080e84:	1827883a 	mov	r19,r3
 1080e88:	10879cc0 	call	10879cc <__muldf3>
 1080e8c:	1009883a 	mov	r4,r2
 1080e90:	180b883a 	mov	r5,r3
 1080e94:	a00d883a 	mov	r6,r20
 1080e98:	980f883a 	mov	r7,r19
 1080e9c:	10882380 	call	1088238 <__subdf3>
 1080ea0:	01a666b4 	movhi	r6,39322
 1080ea4:	01eff2b4 	movhi	r7,49098
 1080ea8:	b009883a 	mov	r4,r22
 1080eac:	a80b883a 	mov	r5,r21
 1080eb0:	31a66684 	addi	r6,r6,-26214
 1080eb4:	39e66644 	addi	r7,r7,-26215
 1080eb8:	d8c01d15 	stw	r3,116(sp)
 1080ebc:	d8801c15 	stw	r2,112(sp)
 1080ec0:	10879cc0 	call	10879cc <__muldf3>
 1080ec4:	1009883a 	mov	r4,r2
 1080ec8:	180b883a 	mov	r5,r3
 1080ecc:	a00d883a 	mov	r6,r20
 1080ed0:	980f883a 	mov	r7,r19
 1080ed4:	10882380 	call	1088238 <__subdf3>
 1080ed8:	100d883a 	mov	r6,r2
 1080edc:	d8800215 	stw	r2,8(sp)
 1080ee0:	d8801604 	addi	r2,sp,88
 1080ee4:	da401c17 	ldw	r9,112(sp)
 1080ee8:	da001d17 	ldw	r8,116(sp)
 1080eec:	d8800415 	stw	r2,16(sp)
 1080ef0:	d8801404 	addi	r2,sp,80
 1080ef4:	d8800515 	stw	r2,20(sp)
 1080ef8:	d8801204 	addi	r2,sp,72
 1080efc:	d8800615 	stw	r2,24(sp)
 1080f00:	d8801004 	addi	r2,sp,64
 1080f04:	180f883a 	mov	r7,r3
 1080f08:	da400015 	stw	r9,0(sp)
 1080f0c:	da000115 	stw	r8,4(sp)
 1080f10:	d8c00315 	stw	r3,12(sp)
 1080f14:	d8800715 	stw	r2,28(sp)
 1080f18:	4809883a 	mov	r4,r9
 1080f1c:	400b883a 	mov	r5,r8
 1080f20:	10809240 	call	1080924 <stabilizing_motors_force_to_pwm>
 1080f24:	80800117 	ldw	r2,4(r16)
 1080f28:	1000b316 	blt	r2,zero,10811f8 <calculate_pid+0x544>
 1080f2c:	00c00784 	movi	r3,30
 1080f30:	1880090e 	bge	r3,r2,1080f58 <calculate_pid+0x2a4>
 1080f34:	01a666b4 	movhi	r6,39322
 1080f38:	01cffab4 	movhi	r7,16362
 1080f3c:	9009883a 	mov	r4,r18
 1080f40:	880b883a 	mov	r5,r17
 1080f44:	31a66684 	addi	r6,r6,-26214
 1080f48:	39e66644 	addi	r7,r7,-26215
 1080f4c:	10879cc0 	call	10879cc <__muldf3>
 1080f50:	1025883a 	mov	r18,r2
 1080f54:	1823883a 	mov	r17,r3
 1080f58:	e009883a 	mov	r4,fp
 1080f5c:	b80b883a 	mov	r5,r23
 1080f60:	000d883a 	mov	r6,zero
 1080f64:	01cff434 	movhi	r7,16336
 1080f68:	10879cc0 	call	10879cc <__muldf3>
 1080f6c:	d9001817 	ldw	r4,96(sp)
 1080f70:	d9401b17 	ldw	r5,108(sp)
 1080f74:	01a666b4 	movhi	r6,39322
 1080f78:	01cff2b4 	movhi	r7,16330
 1080f7c:	31a66684 	addi	r6,r6,-26214
 1080f80:	39e66644 	addi	r7,r7,-26215
 1080f84:	d8801915 	stw	r2,100(sp)
 1080f88:	d8c01a15 	stw	r3,104(sp)
 1080f8c:	10879cc0 	call	10879cc <__muldf3>
 1080f90:	01a666b4 	movhi	r6,39322
 1080f94:	01cff2b4 	movhi	r7,16330
 1080f98:	9009883a 	mov	r4,r18
 1080f9c:	880b883a 	mov	r5,r17
 1080fa0:	31a66684 	addi	r6,r6,-26214
 1080fa4:	39e66644 	addi	r7,r7,-26215
 1080fa8:	102b883a 	mov	r21,r2
 1080fac:	1829883a 	mov	r20,r3
 1080fb0:	10879cc0 	call	10879cc <__muldf3>
 1080fb4:	e009883a 	mov	r4,fp
 1080fb8:	b80b883a 	mov	r5,r23
 1080fbc:	000d883a 	mov	r6,zero
 1080fc0:	01eff434 	movhi	r7,49104
 1080fc4:	1825883a 	mov	r18,r3
 1080fc8:	d8801815 	stw	r2,96(sp)
 1080fcc:	10879cc0 	call	10879cc <__muldf3>
 1080fd0:	d9001917 	ldw	r4,100(sp)
 1080fd4:	d9401a17 	ldw	r5,104(sp)
 1080fd8:	a80d883a 	mov	r6,r21
 1080fdc:	a00f883a 	mov	r7,r20
 1080fe0:	102f883a 	mov	r23,r2
 1080fe4:	1839883a 	mov	fp,r3
 1080fe8:	108656c0 	call	108656c <__adddf3>
 1080fec:	d9801817 	ldw	r6,96(sp)
 1080ff0:	1009883a 	mov	r4,r2
 1080ff4:	180b883a 	mov	r5,r3
 1080ff8:	900f883a 	mov	r7,r18
 1080ffc:	108656c0 	call	108656c <__adddf3>
 1081000:	a809883a 	mov	r4,r21
 1081004:	a00b883a 	mov	r5,r20
 1081008:	b80d883a 	mov	r6,r23
 108100c:	e00f883a 	mov	r7,fp
 1081010:	d8c01f15 	stw	r3,124(sp)
 1081014:	d8801e15 	stw	r2,120(sp)
 1081018:	108656c0 	call	108656c <__adddf3>
 108101c:	d9001817 	ldw	r4,96(sp)
 1081020:	900b883a 	mov	r5,r18
 1081024:	100d883a 	mov	r6,r2
 1081028:	180f883a 	mov	r7,r3
 108102c:	108656c0 	call	108656c <__adddf3>
 1081030:	d9001917 	ldw	r4,100(sp)
 1081034:	d9401a17 	ldw	r5,104(sp)
 1081038:	a80d883a 	mov	r6,r21
 108103c:	a00f883a 	mov	r7,r20
 1081040:	d8c01d15 	stw	r3,116(sp)
 1081044:	d8801c15 	stw	r2,112(sp)
 1081048:	10882380 	call	1088238 <__subdf3>
 108104c:	d9001817 	ldw	r4,96(sp)
 1081050:	900b883a 	mov	r5,r18
 1081054:	100d883a 	mov	r6,r2
 1081058:	180f883a 	mov	r7,r3
 108105c:	108656c0 	call	108656c <__adddf3>
 1081060:	b809883a 	mov	r4,r23
 1081064:	e00b883a 	mov	r5,fp
 1081068:	a80d883a 	mov	r6,r21
 108106c:	a00f883a 	mov	r7,r20
 1081070:	d8800015 	stw	r2,0(sp)
 1081074:	d8c00115 	stw	r3,4(sp)
 1081078:	10882380 	call	1088238 <__subdf3>
 108107c:	d9001817 	ldw	r4,96(sp)
 1081080:	900b883a 	mov	r5,r18
 1081084:	100d883a 	mov	r6,r2
 1081088:	180f883a 	mov	r7,r3
 108108c:	108656c0 	call	108656c <__adddf3>
 1081090:	d8800215 	stw	r2,8(sp)
 1081094:	d8800e04 	addi	r2,sp,56
 1081098:	db401c17 	ldw	r13,112(sp)
 108109c:	db001d17 	ldw	r12,116(sp)
 10810a0:	dac01e17 	ldw	r11,120(sp)
 10810a4:	da801f17 	ldw	r10,124(sp)
 10810a8:	d8800415 	stw	r2,16(sp)
 10810ac:	d8800c04 	addi	r2,sp,48
 10810b0:	d8800515 	stw	r2,20(sp)
 10810b4:	d8800a04 	addi	r2,sp,40
 10810b8:	d8800615 	stw	r2,24(sp)
 10810bc:	d8800804 	addi	r2,sp,32
 10810c0:	5809883a 	mov	r4,r11
 10810c4:	500b883a 	mov	r5,r10
 10810c8:	680d883a 	mov	r6,r13
 10810cc:	600f883a 	mov	r7,r12
 10810d0:	d8800715 	stw	r2,28(sp)
 10810d4:	d8c00315 	stw	r3,12(sp)
 10810d8:	10809240 	call	1080924 <stabilizing_motors_force_to_pwm>
 10810dc:	d9001617 	ldw	r4,88(sp)
 10810e0:	d9401717 	ldw	r5,92(sp)
 10810e4:	040042b4 	movhi	r16,266
 10810e8:	84124d04 	addi	r16,r16,18740
 10810ec:	1088b080 	call	1088b08 <__fixdfsi>
 10810f0:	d9001417 	ldw	r4,80(sp)
 10810f4:	d9401517 	ldw	r5,84(sp)
 10810f8:	80800015 	stw	r2,0(r16)
 10810fc:	0027883a 	mov	r19,zero
 1081100:	1088b080 	call	1088b08 <__fixdfsi>
 1081104:	d9001217 	ldw	r4,72(sp)
 1081108:	d9401317 	ldw	r5,76(sp)
 108110c:	80800115 	stw	r2,4(r16)
 1081110:	802d883a 	mov	r22,r16
 1081114:	1088b080 	call	1088b08 <__fixdfsi>
 1081118:	d9001017 	ldw	r4,64(sp)
 108111c:	d9401117 	ldw	r5,68(sp)
 1081120:	80800215 	stw	r2,8(r16)
 1081124:	04400204 	movi	r17,8
 1081128:	1088b080 	call	1088b08 <__fixdfsi>
 108112c:	d9000e17 	ldw	r4,56(sp)
 1081130:	d9400f17 	ldw	r5,60(sp)
 1081134:	80800315 	stw	r2,12(r16)
 1081138:	1088b080 	call	1088b08 <__fixdfsi>
 108113c:	d9000c17 	ldw	r4,48(sp)
 1081140:	d9400d17 	ldw	r5,52(sp)
 1081144:	80800415 	stw	r2,16(r16)
 1081148:	1088b080 	call	1088b08 <__fixdfsi>
 108114c:	d9000a17 	ldw	r4,40(sp)
 1081150:	d9400b17 	ldw	r5,44(sp)
 1081154:	80800515 	stw	r2,20(r16)
 1081158:	1088b080 	call	1088b08 <__fixdfsi>
 108115c:	d9000817 	ldw	r4,32(sp)
 1081160:	d9400917 	ldw	r5,36(sp)
 1081164:	80800615 	stw	r2,24(r16)
 1081168:	1088b080 	call	1088b08 <__fixdfsi>
 108116c:	80800715 	stw	r2,28(r16)
 1081170:	b1400017 	ldw	r5,0(r22)
 1081174:	9809883a 	mov	r4,r19
 1081178:	9cc00044 	addi	r19,r19,1
 108117c:	10832e40 	call	10832e4 <set_motor_duty_cycle>
 1081180:	b5800104 	addi	r22,r22,4
 1081184:	9c7ffa1e 	bne	r19,r17,1081170 <calculate_pid+0x4bc>
 1081188:	dfc02917 	ldw	ra,164(sp)
 108118c:	df002817 	ldw	fp,160(sp)
 1081190:	ddc02717 	ldw	r23,156(sp)
 1081194:	dd802617 	ldw	r22,152(sp)
 1081198:	dd402517 	ldw	r21,148(sp)
 108119c:	dd002417 	ldw	r20,144(sp)
 10811a0:	dcc02317 	ldw	r19,140(sp)
 10811a4:	dc802217 	ldw	r18,136(sp)
 10811a8:	dc402117 	ldw	r17,132(sp)
 10811ac:	dc002017 	ldw	r16,128(sp)
 10811b0:	dec02a04 	addi	sp,sp,168
 10811b4:	f800283a 	ret
 10811b8:	01f019f4 	movhi	r7,49255
 10811bc:	39e00004 	addi	r7,r7,-32768
 10811c0:	9009883a 	mov	r4,r18
 10811c4:	880b883a 	mov	r5,r17
 10811c8:	000d883a 	mov	r6,zero
 10811cc:	10878ec0 	call	10878ec <__ledf2>
 10811d0:	103ef70e 	bge	r2,zero,1080db0 <calculate_pid+0xfc>
 10811d4:	01d01df4 	movhi	r7,16503
 10811d8:	9009883a 	mov	r4,r18
 10811dc:	880b883a 	mov	r5,r17
 10811e0:	39e00004 	addi	r7,r7,-32768
 10811e4:	000d883a 	mov	r6,zero
 10811e8:	108656c0 	call	108656c <__adddf3>
 10811ec:	1025883a 	mov	r18,r2
 10811f0:	1823883a 	mov	r17,r3
 10811f4:	003eee06 	br	1080db0 <calculate_pid+0xfc>
 10811f8:	0085c83a 	sub	r2,zero,r2
 10811fc:	003f4b06 	br	1080f2c <calculate_pid+0x278>
 1081200:	10800fc4 	addi	r2,r2,63
 1081204:	003ebd06 	br	1080cfc <calculate_pid+0x48>

01081208 <print_debug_controller>:
 1081208:	defffc04 	addi	sp,sp,-16
 108120c:	dc000015 	stw	r16,0(sp)
 1081210:	040042b4 	movhi	r16,266
 1081214:	8411f904 	addi	r16,r16,18404
 1081218:	8009883a 	mov	r4,r16
 108121c:	dfc00315 	stw	ra,12(sp)
 1081220:	dc800215 	stw	r18,8(sp)
 1081224:	dc400115 	stw	r17,4(sp)
 1081228:	10821800 	call	1082180 <PID_Output>
 108122c:	81000017 	ldw	r4,0(r16)
 1081230:	81400117 	ldw	r5,4(r16)
 1081234:	81800617 	ldw	r6,24(r16)
 1081238:	81c00717 	ldw	r7,28(r16)
 108123c:	1025883a 	mov	r18,r2
 1081240:	1823883a 	mov	r17,r3
 1081244:	10879cc0 	call	10879cc <__muldf3>
 1081248:	010042b4 	movhi	r4,266
 108124c:	180d883a 	mov	r6,r3
 1081250:	213e6704 	addi	r4,r4,-1636
 1081254:	100b883a 	mov	r5,r2
 1081258:	1088fa80 	call	1088fa8 <printf>
 108125c:	81000217 	ldw	r4,8(r16)
 1081260:	81400317 	ldw	r5,12(r16)
 1081264:	81800817 	ldw	r6,32(r16)
 1081268:	81c00917 	ldw	r7,36(r16)
 108126c:	10879cc0 	call	10879cc <__muldf3>
 1081270:	010042b4 	movhi	r4,266
 1081274:	180d883a 	mov	r6,r3
 1081278:	213e6c04 	addi	r4,r4,-1616
 108127c:	100b883a 	mov	r5,r2
 1081280:	1088fa80 	call	1088fa8 <printf>
 1081284:	81000417 	ldw	r4,16(r16)
 1081288:	81400517 	ldw	r5,20(r16)
 108128c:	81800a17 	ldw	r6,40(r16)
 1081290:	81c00b17 	ldw	r7,44(r16)
 1081294:	10879cc0 	call	10879cc <__muldf3>
 1081298:	010042b4 	movhi	r4,266
 108129c:	180d883a 	mov	r6,r3
 10812a0:	213e7104 	addi	r4,r4,-1596
 10812a4:	100b883a 	mov	r5,r2
 10812a8:	1088fa80 	call	1088fa8 <printf>
 10812ac:	010042b4 	movhi	r4,266
 10812b0:	213e7604 	addi	r4,r4,-1576
 10812b4:	900b883a 	mov	r5,r18
 10812b8:	880d883a 	mov	r6,r17
 10812bc:	dfc00317 	ldw	ra,12(sp)
 10812c0:	dc800217 	ldw	r18,8(sp)
 10812c4:	dc400117 	ldw	r17,4(sp)
 10812c8:	dc000017 	ldw	r16,0(sp)
 10812cc:	dec00404 	addi	sp,sp,16
 10812d0:	1088fa81 	jmpi	1088fa8 <printf>

010812d4 <timer_interrupts>:
 10812d4:	00c042b4 	movhi	r3,266
 10812d8:	008042b4 	movhi	r2,266
 10812dc:	18d2a604 	addi	r3,r3,19096
 10812e0:	10929f04 	addi	r2,r2,19068
 10812e4:	19400017 	ldw	r5,0(r3)
 10812e8:	11000017 	ldw	r4,0(r2)
 10812ec:	deffff04 	addi	sp,sp,-4
 10812f0:	dfc00015 	stw	ra,0(sp)
 10812f4:	29005026 	beq	r5,r4,1081438 <timer_interrupts+0x164>
 10812f8:	19000117 	ldw	r4,4(r3)
 10812fc:	11800117 	ldw	r6,4(r2)
 1081300:	11400015 	stw	r5,0(r2)
 1081304:	21804726 	beq	r4,r6,1081424 <timer_interrupts+0x150>
 1081308:	19400217 	ldw	r5,8(r3)
 108130c:	11800217 	ldw	r6,8(r2)
 1081310:	11000115 	stw	r4,4(r2)
 1081314:	29803e26 	beq	r5,r6,1081410 <timer_interrupts+0x13c>
 1081318:	19000317 	ldw	r4,12(r3)
 108131c:	11800317 	ldw	r6,12(r2)
 1081320:	11400215 	stw	r5,8(r2)
 1081324:	21803526 	beq	r4,r6,10813fc <timer_interrupts+0x128>
 1081328:	19400417 	ldw	r5,16(r3)
 108132c:	11800417 	ldw	r6,16(r2)
 1081330:	11000315 	stw	r4,12(r2)
 1081334:	29802c26 	beq	r5,r6,10813e8 <timer_interrupts+0x114>
 1081338:	19000517 	ldw	r4,20(r3)
 108133c:	11800517 	ldw	r6,20(r2)
 1081340:	11400415 	stw	r5,16(r2)
 1081344:	21802326 	beq	r4,r6,10813d4 <timer_interrupts+0x100>
 1081348:	18c00617 	ldw	r3,24(r3)
 108134c:	11400617 	ldw	r5,24(r2)
 1081350:	11000515 	stw	r4,20(r2)
 1081354:	19401a26 	beq	r3,r5,10813c0 <timer_interrupts+0xec>
 1081358:	10c00615 	stw	r3,24(r2)
 108135c:	10802980 	call	1080298 <update_depth_reading>
 1081360:	d0a76117 	ldw	r2,-25212(gp)
 1081364:	10800044 	addi	r2,r2,1
 1081368:	d0a76115 	stw	r2,-25212(gp)
 108136c:	10800fcc 	andi	r2,r2,63
 1081370:	1000021e 	bne	r2,zero,108137c <timer_interrupts+0xa8>
 1081374:	00800044 	movi	r2,1
 1081378:	d0a76215 	stw	r2,-25208(gp)
 108137c:	00804434 	movhi	r2,272
 1081380:	10842404 	addi	r2,r2,4240
 1081384:	00c00044 	movi	r3,1
 1081388:	10c00035 	stwio	r3,0(r2)
 108138c:	00804434 	movhi	r2,272
 1081390:	10842104 	addi	r2,r2,4228
 1081394:	10000035 	stwio	zero,0(r2)
 1081398:	00c04434 	movhi	r3,272
 108139c:	18c42004 	addi	r3,r3,4224
 10813a0:	18000035 	stwio	zero,0(r3)
 10813a4:	d0e76317 	ldw	r3,-25204(gp)
 10813a8:	18000226 	beq	r3,zero,10813b4 <timer_interrupts+0xe0>
 10813ac:	00c001c4 	movi	r3,7
 10813b0:	10c00035 	stwio	r3,0(r2)
 10813b4:	dfc00017 	ldw	ra,0(sp)
 10813b8:	dec00104 	addi	sp,sp,4
 10813bc:	f800283a 	ret
 10813c0:	00c042b4 	movhi	r3,266
 10813c4:	18d2a604 	addi	r3,r3,19096
 10813c8:	18000615 	stw	zero,24(r3)
 10813cc:	0007883a 	mov	r3,zero
 10813d0:	003fe106 	br	1081358 <timer_interrupts+0x84>
 10813d4:	010042b4 	movhi	r4,266
 10813d8:	2112a604 	addi	r4,r4,19096
 10813dc:	20000515 	stw	zero,20(r4)
 10813e0:	0009883a 	mov	r4,zero
 10813e4:	003fd806 	br	1081348 <timer_interrupts+0x74>
 10813e8:	010042b4 	movhi	r4,266
 10813ec:	2112a604 	addi	r4,r4,19096
 10813f0:	20000415 	stw	zero,16(r4)
 10813f4:	000b883a 	mov	r5,zero
 10813f8:	003fcf06 	br	1081338 <timer_interrupts+0x64>
 10813fc:	010042b4 	movhi	r4,266
 1081400:	2112a604 	addi	r4,r4,19096
 1081404:	20000315 	stw	zero,12(r4)
 1081408:	0009883a 	mov	r4,zero
 108140c:	003fc606 	br	1081328 <timer_interrupts+0x54>
 1081410:	010042b4 	movhi	r4,266
 1081414:	2112a604 	addi	r4,r4,19096
 1081418:	20000215 	stw	zero,8(r4)
 108141c:	000b883a 	mov	r5,zero
 1081420:	003fbd06 	br	1081318 <timer_interrupts+0x44>
 1081424:	010042b4 	movhi	r4,266
 1081428:	2112a604 	addi	r4,r4,19096
 108142c:	20000115 	stw	zero,4(r4)
 1081430:	0009883a 	mov	r4,zero
 1081434:	003fb406 	br	1081308 <timer_interrupts+0x34>
 1081438:	18000015 	stw	zero,0(r3)
 108143c:	000b883a 	mov	r5,zero
 1081440:	003fad06 	br	10812f8 <timer_interrupts+0x24>

01081444 <pm_interrupt>:
 1081444:	01004434 	movhi	r4,272
 1081448:	21042d04 	addi	r4,r4,4276
 108144c:	20800037 	ldwio	r2,0(r4)
 1081450:	01400044 	movi	r5,1
 1081454:	10fffec4 	addi	r3,r2,-5
 1081458:	28c0142e 	bgeu	r5,r3,10814ac <pm_interrupt+0x68>
 108145c:	defffc04 	addi	sp,sp,-16
 1081460:	dc000015 	stw	r16,0(sp)
 1081464:	1085883a 	add	r2,r2,r2
 1081468:	040042b4 	movhi	r16,266
 108146c:	8412a604 	addi	r16,r16,19096
 1081470:	1085883a 	add	r2,r2,r2
 1081474:	8085883a 	add	r2,r16,r2
 1081478:	10c00017 	ldw	r3,0(r2)
 108147c:	dfc00315 	stw	ra,12(sp)
 1081480:	dc800215 	stw	r18,8(sp)
 1081484:	dc400115 	stw	r17,4(sp)
 1081488:	1947883a 	add	r3,r3,r5
 108148c:	10c00015 	stw	r3,0(r2)
 1081490:	008018c4 	movi	r2,99
 1081494:	10c00616 	blt	r2,r3,10814b0 <pm_interrupt+0x6c>
 1081498:	dfc00317 	ldw	ra,12(sp)
 108149c:	dc800217 	ldw	r18,8(sp)
 10814a0:	dc400117 	ldw	r17,4(sp)
 10814a4:	dc000017 	ldw	r16,0(sp)
 10814a8:	dec00404 	addi	sp,sp,16
 10814ac:	f800283a 	ret
 10814b0:	20000035 	stwio	zero,0(r4)
 10814b4:	010042b4 	movhi	r4,266
 10814b8:	213e7a04 	addi	r4,r4,-1560
 10814bc:	04804234 	movhi	r18,264
 10814c0:	94853b04 	addi	r18,r18,5356
 10814c4:	109d1dc0 	call	109d1dc <alt_printf>
 10814c8:	0023883a 	mov	r17,zero
 10814cc:	80800017 	ldw	r2,0(r16)
 10814d0:	10001526 	beq	r2,zero,1081528 <pm_interrupt+0xe4>
 10814d4:	00800184 	movi	r2,6
 10814d8:	14402836 	bltu	r2,r17,108157c <pm_interrupt+0x138>
 10814dc:	880490ba 	slli	r2,r17,2
 10814e0:	1485883a 	add	r2,r2,r18
 10814e4:	10800017 	ldw	r2,0(r2)
 10814e8:	1000683a 	jmp	r2
 10814ec:	0108157c 	xorhi	r4,zero,8277
 10814f0:	0108156c 	andhi	r4,zero,8277
 10814f4:	0108155c 	xori	r4,zero,8277
 10814f8:	0108154c 	andi	r4,zero,8277
 10814fc:	0108153c 	xorhi	r4,zero,8276
 1081500:	01081508 	cmpgei	r4,zero,8276
 1081504:	0108158c 	andi	r4,zero,8278
 1081508:	010042b4 	movhi	r4,266
 108150c:	213ea004 	addi	r4,r4,-1408
 1081510:	109d4480 	call	109d448 <alt_putstr>
 1081514:	81000017 	ldw	r4,0(r16)
 1081518:	10831cc0 	call	10831cc <print_int>
 108151c:	010042b4 	movhi	r4,266
 1081520:	213eae04 	addi	r4,r4,-1352
 1081524:	109d4480 	call	109d448 <alt_putstr>
 1081528:	8c400044 	addi	r17,r17,1
 108152c:	008001c4 	movi	r2,7
 1081530:	84000104 	addi	r16,r16,4
 1081534:	88bfe51e 	bne	r17,r2,10814cc <pm_interrupt+0x88>
 1081538:	003fd706 	br	1081498 <pm_interrupt+0x54>
 108153c:	010042b4 	movhi	r4,266
 1081540:	213e9904 	addi	r4,r4,-1436
 1081544:	109d4480 	call	109d448 <alt_putstr>
 1081548:	003ff206 	br	1081514 <pm_interrupt+0xd0>
 108154c:	010042b4 	movhi	r4,266
 1081550:	213e9304 	addi	r4,r4,-1460
 1081554:	109d4480 	call	109d448 <alt_putstr>
 1081558:	003fee06 	br	1081514 <pm_interrupt+0xd0>
 108155c:	010042b4 	movhi	r4,266
 1081560:	213e8c04 	addi	r4,r4,-1488
 1081564:	109d4480 	call	109d448 <alt_putstr>
 1081568:	003fea06 	br	1081514 <pm_interrupt+0xd0>
 108156c:	010042b4 	movhi	r4,266
 1081570:	213e8504 	addi	r4,r4,-1516
 1081574:	109d4480 	call	109d448 <alt_putstr>
 1081578:	003fe606 	br	1081514 <pm_interrupt+0xd0>
 108157c:	010042b4 	movhi	r4,266
 1081580:	213e7e04 	addi	r4,r4,-1544
 1081584:	109d4480 	call	109d448 <alt_putstr>
 1081588:	003fe206 	br	1081514 <pm_interrupt+0xd0>
 108158c:	010042b4 	movhi	r4,266
 1081590:	213ea704 	addi	r4,r4,-1380
 1081594:	109d4480 	call	109d448 <alt_putstr>
 1081598:	003fde06 	br	1081514 <pm_interrupt+0xd0>

0108159c <get_user_depth>:
 108159c:	d0a76317 	ldw	r2,-25204(gp)
 10815a0:	1000011e 	bne	r2,zero,10815a8 <get_user_depth+0xc>
 10815a4:	10834a81 	jmpi	10834a8 <get_depth>
 10815a8:	108030c1 	jmpi	108030c <get_average_depth>

010815ac <set_controller>:
 10815ac:	defff804 	addi	sp,sp,-32
 10815b0:	dfc00715 	stw	ra,28(sp)
 10815b4:	dc400615 	stw	r17,24(sp)
 10815b8:	dc000515 	stw	r16,20(sp)
 10815bc:	d1276315 	stw	r4,-25204(gp)
 10815c0:	20000c1e 	bne	r4,zero,10815f4 <set_controller+0x48>
 10815c4:	0021883a 	mov	r16,zero
 10815c8:	04400204 	movi	r17,8
 10815cc:	8009883a 	mov	r4,r16
 10815d0:	01408004 	movi	r5,512
 10815d4:	84000044 	addi	r16,r16,1
 10815d8:	10832e40 	call	10832e4 <set_motor_duty_cycle>
 10815dc:	847ffb1e 	bne	r16,r17,10815cc <set_controller+0x20>
 10815e0:	dfc00717 	ldw	ra,28(sp)
 10815e4:	dc400617 	ldw	r17,24(sp)
 10815e8:	dc000517 	ldw	r16,20(sp)
 10815ec:	dec00804 	addi	sp,sp,32
 10815f0:	f800283a 	ret
 10815f4:	d809883a 	mov	r4,sp
 10815f8:	108292c0 	call	108292c <get_imu_orientation>
 10815fc:	0009883a 	mov	r4,zero
 1081600:	10802680 	call	1080268 <set_target_speed>
 1081604:	d9000017 	ldw	r4,0(sp)
 1081608:	10802780 	call	1080278 <set_target_heading>
 108160c:	10834a80 	call	10834a8 <get_depth>
 1081610:	1009883a 	mov	r4,r2
 1081614:	10802880 	call	1080288 <set_target_depth>
 1081618:	00804434 	movhi	r2,272
 108161c:	10842104 	addi	r2,r2,4228
 1081620:	00c001c4 	movi	r3,7
 1081624:	10c00035 	stwio	r3,0(r2)
 1081628:	003fed06 	br	10815e0 <set_controller+0x34>

0108162c <init_interrupts>:
 108162c:	defffd04 	addi	sp,sp,-12
 1081630:	01804234 	movhi	r6,264
 1081634:	31851104 	addi	r6,r6,5188
 1081638:	d8000015 	stw	zero,0(sp)
 108163c:	0009883a 	mov	r4,zero
 1081640:	000b883a 	mov	r5,zero
 1081644:	000f883a 	mov	r7,zero
 1081648:	dfc00215 	stw	ra,8(sp)
 108164c:	dc000115 	stw	r16,4(sp)
 1081650:	109cb480 	call	109cb48 <alt_ic_isr_register>
 1081654:	04000084 	movi	r16,2
 1081658:	01804234 	movhi	r6,264
 108165c:	3184b504 	addi	r6,r6,4820
 1081660:	d8000015 	stw	zero,0(sp)
 1081664:	0009883a 	mov	r4,zero
 1081668:	800b883a 	mov	r5,r16
 108166c:	000f883a 	mov	r7,zero
 1081670:	109cb480 	call	109cb48 <alt_ic_isr_register>
 1081674:	00804434 	movhi	r2,272
 1081678:	10842104 	addi	r2,r2,4228
 108167c:	10000035 	stwio	zero,0(r2)
 1081680:	14000035 	stwio	r16,0(r2)
 1081684:	00c04434 	movhi	r3,272
 1081688:	18c42204 	addi	r3,r3,4232
 108168c:	01262584 	movi	r4,-26474
 1081690:	19000035 	stwio	r4,0(r3)
 1081694:	00c04434 	movhi	r3,272
 1081698:	18c42304 	addi	r3,r3,4236
 108169c:	18000035 	stwio	zero,0(r3)
 10816a0:	00c000c4 	movi	r3,3
 10816a4:	10c00035 	stwio	r3,0(r2)
 10816a8:	d0e76317 	ldw	r3,-25204(gp)
 10816ac:	18000226 	beq	r3,zero,10816b8 <init_interrupts+0x8c>
 10816b0:	00c001c4 	movi	r3,7
 10816b4:	10c00035 	stwio	r3,0(r2)
 10816b8:	dfc00217 	ldw	ra,8(sp)
 10816bc:	dc000117 	ldw	r16,4(sp)
 10816c0:	dec00304 	addi	sp,sp,12
 10816c4:	f800283a 	ret

010816c8 <print_help>:
 10816c8:	defffa04 	addi	sp,sp,-24
 10816cc:	dc800215 	stw	r18,8(sp)
 10816d0:	dfc00515 	stw	ra,20(sp)
 10816d4:	dd000415 	stw	r20,16(sp)
 10816d8:	dcc00315 	stw	r19,12(sp)
 10816dc:	dc400115 	stw	r17,4(sp)
 10816e0:	dc000015 	stw	r16,0(sp)
 10816e4:	20c00007 	ldb	r3,0(r4)
 10816e8:	00800804 	movi	r2,32
 10816ec:	2025883a 	mov	r18,r4
 10816f0:	1880031e 	bne	r3,r2,1081700 <print_help+0x38>
 10816f4:	94800044 	addi	r18,r18,1
 10816f8:	90800007 	ldb	r2,0(r18)
 10816fc:	10fffd26 	beq	r2,r3,10816f4 <print_help+0x2c>
 1081700:	010042b4 	movhi	r4,266
 1081704:	213eb004 	addi	r4,r4,-1344
 1081708:	108908c0 	call	108908c <puts>
 108170c:	9009883a 	mov	r4,r18
 1081710:	10894380 	call	1089438 <strlen>
 1081714:	14ffffc4 	addi	r19,r2,-1
 1081718:	98001a16 	blt	r19,zero,1081784 <print_help+0xbc>
 108171c:	044042b4 	movhi	r17,266
 1081720:	8c434d04 	addi	r17,r17,3380
 1081724:	8c000204 	addi	r16,r17,8
 1081728:	8d004a04 	addi	r20,r17,296
 108172c:	00000306 	br	108173c <print_help+0x74>
 1081730:	84000304 	addi	r16,r16,12
 1081734:	8c400304 	addi	r17,r17,12
 1081738:	85000a26 	beq	r16,r20,1081764 <print_help+0x9c>
 108173c:	89400017 	ldw	r5,0(r17)
 1081740:	9009883a 	mov	r4,r18
 1081744:	980d883a 	mov	r6,r19
 1081748:	10894d00 	call	10894d0 <strncmp>
 108174c:	103ff81e 	bne	r2,zero,1081730 <print_help+0x68>
 1081750:	81000017 	ldw	r4,0(r16)
 1081754:	84000304 	addi	r16,r16,12
 1081758:	8c400304 	addi	r17,r17,12
 108175c:	108908c0 	call	108908c <puts>
 1081760:	853ff61e 	bne	r16,r20,108173c <print_help+0x74>
 1081764:	dfc00517 	ldw	ra,20(sp)
 1081768:	dd000417 	ldw	r20,16(sp)
 108176c:	dcc00317 	ldw	r19,12(sp)
 1081770:	dc800217 	ldw	r18,8(sp)
 1081774:	dc400117 	ldw	r17,4(sp)
 1081778:	dc000017 	ldw	r16,0(sp)
 108177c:	dec00604 	addi	sp,sp,24
 1081780:	f800283a 	ret
 1081784:	0027883a 	mov	r19,zero
 1081788:	003fe406 	br	108171c <print_help+0x54>

0108178c <process_command>:
 108178c:	deffe704 	addi	sp,sp,-100
 1081790:	dd801615 	stw	r22,88(sp)
 1081794:	058042b4 	movhi	r22,266
 1081798:	b5834d04 	addi	r22,r22,3380
 108179c:	ddc01715 	stw	r23,92(sp)
 10817a0:	dd401515 	stw	r21,84(sp)
 10817a4:	dd001415 	stw	r20,80(sp)
 10817a8:	dc801215 	stw	r18,72(sp)
 10817ac:	dc401115 	stw	r17,68(sp)
 10817b0:	dfc01815 	stw	ra,96(sp)
 10817b4:	dcc01315 	stw	r19,76(sp)
 10817b8:	dc001015 	stw	r16,64(sp)
 10817bc:	2029883a 	mov	r20,r4
 10817c0:	0025883a 	mov	r18,zero
 10817c4:	b02f883a 	mov	r23,r22
 10817c8:	b023883a 	mov	r17,r22
 10817cc:	05400604 	movi	r21,24
 10817d0:	00000306 	br	10817e0 <process_command+0x54>
 10817d4:	94800044 	addi	r18,r18,1
 10817d8:	8c400304 	addi	r17,r17,12
 10817dc:	9541a626 	beq	r18,r21,1081e78 <process_command+0x6ec>
 10817e0:	8c000017 	ldw	r16,0(r17)
 10817e4:	8009883a 	mov	r4,r16
 10817e8:	10894380 	call	1089438 <strlen>
 10817ec:	a009883a 	mov	r4,r20
 10817f0:	800b883a 	mov	r5,r16
 10817f4:	100d883a 	mov	r6,r2
 10817f8:	1027883a 	mov	r19,r2
 10817fc:	10894d00 	call	10894d0 <strncmp>
 1081800:	103ff41e 	bne	r2,zero,10817d4 <process_command+0x48>
 1081804:	9009883a 	mov	r4,r18
 1081808:	01400304 	movi	r5,12
 108180c:	108607c0 	call	108607c <__mulsi3>
 1081810:	b885883a 	add	r2,r23,r2
 1081814:	10800117 	ldw	r2,4(r2)
 1081818:	00c00604 	movi	r3,24
 108181c:	a4e9883a 	add	r20,r20,r19
 1081820:	18803236 	bltu	r3,r2,10818ec <process_command+0x160>
 1081824:	100490ba 	slli	r2,r2,2
 1081828:	00c04234 	movhi	r3,264
 108182c:	18c60f04 	addi	r3,r3,6204
 1081830:	10c5883a 	add	r2,r2,r3
 1081834:	10800017 	ldw	r2,0(r2)
 1081838:	1000683a 	jmp	r2
 108183c:	01081e78 	rdprs	r4,zero,8313
 1081840:	01081cd8 	cmpnei	r4,zero,8307
 1081844:	01081c98 	cmpnei	r4,zero,8306
 1081848:	01081d2c 	andhi	r4,zero,8308
 108184c:	01081be4 	muli	r4,zero,8303
 1081850:	01081ba4 	muli	r4,zero,8302
 1081854:	010818a0 	cmpeqi	r4,zero,8290
 1081858:	01081b58 	cmpnei	r4,zero,8301
 108185c:	01081b08 	cmpgei	r4,zero,8300
 1081860:	01081d70 	cmpltui	r4,zero,8309
 1081864:	010818ec 	andhi	r4,zero,8291
 1081868:	010818ec 	andhi	r4,zero,8291
 108186c:	010818ec 	andhi	r4,zero,8291
 1081870:	01081d58 	cmpnei	r4,zero,8309
 1081874:	01081dac 	andhi	r4,zero,8310
 1081878:	01081c24 	muli	r4,zero,8304
 108187c:	01081e54 	movui	r4,8313
 1081880:	01081d18 	cmpnei	r4,zero,8308
 1081884:	01081ae0 	cmpeqi	r4,zero,8299
 1081888:	01081aac 	andhi	r4,zero,8298
 108188c:	01081a98 	cmpnei	r4,zero,8298
 1081890:	01081a38 	rdprs	r4,zero,8296
 1081894:	010819d8 	cmpnei	r4,zero,8295
 1081898:	01081978 	rdprs	r4,zero,8293
 108189c:	01081918 	cmpnei	r4,zero,8292
 10818a0:	a009883a 	mov	r4,r20
 10818a4:	10830d40 	call	10830d4 <read_hex>
 10818a8:	1021883a 	mov	r16,r2
 10818ac:	00800284 	movi	r2,10
 10818b0:	8081b226 	beq	r16,r2,1081f7c <process_command+0x7f0>
 10818b4:	008001c4 	movi	r2,7
 10818b8:	14016b36 	bltu	r2,r16,1081e68 <process_command+0x6dc>
 10818bc:	a1000084 	addi	r4,r20,2
 10818c0:	10830d40 	call	10830d4 <read_hex>
 10818c4:	1023883a 	mov	r17,r2
 10818c8:	1001a816 	blt	r2,zero,1081f6c <process_command+0x7e0>
 10818cc:	8009883a 	mov	r4,r16
 10818d0:	100b883a 	mov	r5,r2
 10818d4:	10832e40 	call	10832e4 <set_motor_duty_cycle>
 10818d8:	010042b4 	movhi	r4,266
 10818dc:	213efa04 	addi	r4,r4,-1048
 10818e0:	800b883a 	mov	r5,r16
 10818e4:	880d883a 	mov	r6,r17
 10818e8:	1088fa80 	call	1088fa8 <printf>
 10818ec:	dfc01817 	ldw	ra,96(sp)
 10818f0:	ddc01717 	ldw	r23,92(sp)
 10818f4:	dd801617 	ldw	r22,88(sp)
 10818f8:	dd401517 	ldw	r21,84(sp)
 10818fc:	dd001417 	ldw	r20,80(sp)
 1081900:	dcc01317 	ldw	r19,76(sp)
 1081904:	dc801217 	ldw	r18,72(sp)
 1081908:	dc401117 	ldw	r17,68(sp)
 108190c:	dc001017 	ldw	r16,64(sp)
 1081910:	dec01904 	addi	sp,sp,100
 1081914:	f800283a 	ret
 1081918:	d8800904 	addi	r2,sp,36
 108191c:	d8800015 	stw	r2,0(sp)
 1081920:	014042b4 	movhi	r5,266
 1081924:	d8800404 	addi	r2,sp,16
 1081928:	a009883a 	mov	r4,r20
 108192c:	d9800d04 	addi	r6,sp,52
 1081930:	d9c00b04 	addi	r7,sp,44
 1081934:	297f1e04 	addi	r5,r5,-904
 1081938:	d8800115 	stw	r2,4(sp)
 108193c:	10891640 	call	1089164 <sscanf>
 1081940:	d8800917 	ldw	r2,36(sp)
 1081944:	d9000d17 	ldw	r4,52(sp)
 1081948:	d9400e17 	ldw	r5,56(sp)
 108194c:	d8800015 	stw	r2,0(sp)
 1081950:	d8800a17 	ldw	r2,40(sp)
 1081954:	d9800b17 	ldw	r6,44(sp)
 1081958:	d9c00c17 	ldw	r7,48(sp)
 108195c:	d8800115 	stw	r2,4(sp)
 1081960:	d8800417 	ldw	r2,16(sp)
 1081964:	d8800215 	stw	r2,8(sp)
 1081968:	d8800517 	ldw	r2,20(sp)
 108196c:	d8800315 	stw	r2,12(sp)
 1081970:	10807900 	call	1080790 <set_pid_constants_yaw>
 1081974:	003fdd06 	br	10818ec <process_command+0x160>
 1081978:	d8800904 	addi	r2,sp,36
 108197c:	d8800015 	stw	r2,0(sp)
 1081980:	014042b4 	movhi	r5,266
 1081984:	d8800404 	addi	r2,sp,16
 1081988:	a009883a 	mov	r4,r20
 108198c:	d9800d04 	addi	r6,sp,52
 1081990:	d9c00b04 	addi	r7,sp,44
 1081994:	297f1e04 	addi	r5,r5,-904
 1081998:	d8800115 	stw	r2,4(sp)
 108199c:	10891640 	call	1089164 <sscanf>
 10819a0:	d8800917 	ldw	r2,36(sp)
 10819a4:	d9000d17 	ldw	r4,52(sp)
 10819a8:	d9400e17 	ldw	r5,56(sp)
 10819ac:	d8800015 	stw	r2,0(sp)
 10819b0:	d8800a17 	ldw	r2,40(sp)
 10819b4:	d9800b17 	ldw	r6,44(sp)
 10819b8:	d9c00c17 	ldw	r7,48(sp)
 10819bc:	d8800115 	stw	r2,4(sp)
 10819c0:	d8800417 	ldw	r2,16(sp)
 10819c4:	d8800215 	stw	r2,8(sp)
 10819c8:	d8800517 	ldw	r2,20(sp)
 10819cc:	d8800315 	stw	r2,12(sp)
 10819d0:	10806e40 	call	10806e4 <set_pid_constants_roll>
 10819d4:	003fc506 	br	10818ec <process_command+0x160>
 10819d8:	d8800904 	addi	r2,sp,36
 10819dc:	d8800015 	stw	r2,0(sp)
 10819e0:	014042b4 	movhi	r5,266
 10819e4:	d8800404 	addi	r2,sp,16
 10819e8:	a009883a 	mov	r4,r20
 10819ec:	d9800d04 	addi	r6,sp,52
 10819f0:	d9c00b04 	addi	r7,sp,44
 10819f4:	297f1e04 	addi	r5,r5,-904
 10819f8:	d8800115 	stw	r2,4(sp)
 10819fc:	10891640 	call	1089164 <sscanf>
 1081a00:	d8800917 	ldw	r2,36(sp)
 1081a04:	d9000d17 	ldw	r4,52(sp)
 1081a08:	d9400e17 	ldw	r5,56(sp)
 1081a0c:	d8800015 	stw	r2,0(sp)
 1081a10:	d8800a17 	ldw	r2,40(sp)
 1081a14:	d9800b17 	ldw	r6,44(sp)
 1081a18:	d9c00c17 	ldw	r7,48(sp)
 1081a1c:	d8800115 	stw	r2,4(sp)
 1081a20:	d8800417 	ldw	r2,16(sp)
 1081a24:	d8800215 	stw	r2,8(sp)
 1081a28:	d8800517 	ldw	r2,20(sp)
 1081a2c:	d8800315 	stw	r2,12(sp)
 1081a30:	10806380 	call	1080638 <set_pid_constants_pitch>
 1081a34:	003fad06 	br	10818ec <process_command+0x160>
 1081a38:	d8800904 	addi	r2,sp,36
 1081a3c:	d8800015 	stw	r2,0(sp)
 1081a40:	014042b4 	movhi	r5,266
 1081a44:	d8800404 	addi	r2,sp,16
 1081a48:	a009883a 	mov	r4,r20
 1081a4c:	d9800d04 	addi	r6,sp,52
 1081a50:	d9c00b04 	addi	r7,sp,44
 1081a54:	297f1e04 	addi	r5,r5,-904
 1081a58:	d8800115 	stw	r2,4(sp)
 1081a5c:	10891640 	call	1089164 <sscanf>
 1081a60:	d8800917 	ldw	r2,36(sp)
 1081a64:	d9000d17 	ldw	r4,52(sp)
 1081a68:	d9400e17 	ldw	r5,56(sp)
 1081a6c:	d8800015 	stw	r2,0(sp)
 1081a70:	d8800a17 	ldw	r2,40(sp)
 1081a74:	d9800b17 	ldw	r6,44(sp)
 1081a78:	d9c00c17 	ldw	r7,48(sp)
 1081a7c:	d8800115 	stw	r2,4(sp)
 1081a80:	d8800417 	ldw	r2,16(sp)
 1081a84:	d8800215 	stw	r2,8(sp)
 1081a88:	d8800517 	ldw	r2,20(sp)
 1081a8c:	d8800315 	stw	r2,12(sp)
 1081a90:	108083c0 	call	108083c <set_pid_constants_depth>
 1081a94:	003f9506 	br	10818ec <process_command+0x160>
 1081a98:	010042b4 	movhi	r4,266
 1081a9c:	213f1704 	addi	r4,r4,-932
 1081aa0:	108908c0 	call	108908c <puts>
 1081aa4:	1082ca40 	call	1082ca4 <rs232_shell>
 1081aa8:	003f9006 	br	10818ec <process_command+0x160>
 1081aac:	a009883a 	mov	r4,r20
 1081ab0:	10830d40 	call	10830d4 <read_hex>
 1081ab4:	1021883a 	mov	r16,r2
 1081ab8:	1009883a 	mov	r4,r2
 1081abc:	8400004c 	andi	r16,r16,1
 1081ac0:	10815ac0 	call	10815ac <set_controller>
 1081ac4:	8000f126 	beq	r16,zero,1081e8c <process_command+0x700>
 1081ac8:	014042b4 	movhi	r5,266
 1081acc:	297eb704 	addi	r5,r5,-1316
 1081ad0:	010042b4 	movhi	r4,266
 1081ad4:	213f1104 	addi	r4,r4,-956
 1081ad8:	1088fa80 	call	1088fa8 <printf>
 1081adc:	003f8306 	br	10818ec <process_command+0x160>
 1081ae0:	a009883a 	mov	r4,r20
 1081ae4:	10830d40 	call	10830d4 <read_hex>
 1081ae8:	1009883a 	mov	r4,r2
 1081aec:	1021883a 	mov	r16,r2
 1081af0:	10802880 	call	1080288 <set_target_depth>
 1081af4:	010042b4 	movhi	r4,266
 1081af8:	213f0a04 	addi	r4,r4,-984
 1081afc:	800b883a 	mov	r5,r16
 1081b00:	1088fa80 	call	1088fa8 <printf>
 1081b04:	003f7906 	br	10818ec <process_command+0x160>
 1081b08:	a009883a 	mov	r4,r20
 1081b0c:	10830d40 	call	10830d4 <read_hex>
 1081b10:	1025883a 	mov	r18,r2
 1081b14:	0021883a 	mov	r16,zero
 1081b18:	04400204 	movi	r17,8
 1081b1c:	8009883a 	mov	r4,r16
 1081b20:	000b883a 	mov	r5,zero
 1081b24:	84000044 	addi	r16,r16,1
 1081b28:	10831ec0 	call	10831ec <set_motor_dir>
 1081b2c:	847ffb1e 	bne	r16,r17,1081b1c <process_command+0x390>
 1081b30:	9009883a 	mov	r4,r18
 1081b34:	9480004c 	andi	r18,r18,1
 1081b38:	10831dc0 	call	10831dc <set_pow>
 1081b3c:	9000d626 	beq	r18,zero,1081e98 <process_command+0x70c>
 1081b40:	014042b4 	movhi	r5,266
 1081b44:	297eb704 	addi	r5,r5,-1316
 1081b48:	010042b4 	movhi	r4,266
 1081b4c:	213ece04 	addi	r4,r4,-1224
 1081b50:	1088fa80 	call	1088fa8 <printf>
 1081b54:	003f6506 	br	10818ec <process_command+0x160>
 1081b58:	a009883a 	mov	r4,r20
 1081b5c:	10830d40 	call	10830d4 <read_hex>
 1081b60:	1009883a 	mov	r4,r2
 1081b64:	1021883a 	mov	r16,r2
 1081b68:	10833c40 	call	10833c4 <set_pwm_freq>
 1081b6c:	010042b4 	movhi	r4,266
 1081b70:	800b883a 	mov	r5,r16
 1081b74:	213f0304 	addi	r4,r4,-1012
 1081b78:	0021883a 	mov	r16,zero
 1081b7c:	1088fa80 	call	1088fa8 <printf>
 1081b80:	04400204 	movi	r17,8
 1081b84:	8009883a 	mov	r4,r16
 1081b88:	10834300 	call	1083430 <get_motor_duty_cycle>
 1081b8c:	8009883a 	mov	r4,r16
 1081b90:	100b883a 	mov	r5,r2
 1081b94:	84000044 	addi	r16,r16,1
 1081b98:	10832e40 	call	10832e4 <set_motor_duty_cycle>
 1081b9c:	847ff91e 	bne	r16,r17,1081b84 <process_command+0x3f8>
 1081ba0:	003f5206 	br	10818ec <process_command+0x160>
 1081ba4:	a009883a 	mov	r4,r20
 1081ba8:	10830d40 	call	10830d4 <read_hex>
 1081bac:	00c00284 	movi	r3,10
 1081bb0:	10c0c826 	beq	r2,r3,1081ed4 <process_command+0x748>
 1081bb4:	00c001c4 	movi	r3,7
 1081bb8:	1880ab36 	bltu	r3,r2,1081e68 <process_command+0x6dc>
 1081bbc:	1009883a 	mov	r4,r2
 1081bc0:	01400044 	movi	r5,1
 1081bc4:	d8800f15 	stw	r2,60(sp)
 1081bc8:	10831ec0 	call	10831ec <set_motor_dir>
 1081bcc:	d8800f17 	ldw	r2,60(sp)
 1081bd0:	010042b4 	movhi	r4,266
 1081bd4:	213edf04 	addi	r4,r4,-1156
 1081bd8:	100b883a 	mov	r5,r2
 1081bdc:	1088fa80 	call	1088fa8 <printf>
 1081be0:	003f4206 	br	10818ec <process_command+0x160>
 1081be4:	a009883a 	mov	r4,r20
 1081be8:	10830d40 	call	10830d4 <read_hex>
 1081bec:	00c00284 	movi	r3,10
 1081bf0:	10c0c426 	beq	r2,r3,1081f04 <process_command+0x778>
 1081bf4:	00c001c4 	movi	r3,7
 1081bf8:	18809b36 	bltu	r3,r2,1081e68 <process_command+0x6dc>
 1081bfc:	1009883a 	mov	r4,r2
 1081c00:	000b883a 	mov	r5,zero
 1081c04:	d8800f15 	stw	r2,60(sp)
 1081c08:	10831ec0 	call	10831ec <set_motor_dir>
 1081c0c:	d8800f17 	ldw	r2,60(sp)
 1081c10:	010042b4 	movhi	r4,266
 1081c14:	213ed604 	addi	r4,r4,-1192
 1081c18:	100b883a 	mov	r5,r2
 1081c1c:	1088fa80 	call	1088fa8 <printf>
 1081c20:	003f3206 	br	10818ec <process_command+0x160>
 1081c24:	a0c00047 	ldb	r3,1(r20)
 1081c28:	00800804 	movi	r2,32
 1081c2c:	a5000044 	addi	r20,r20,1
 1081c30:	1880031e 	bne	r3,r2,1081c40 <process_command+0x4b4>
 1081c34:	a5000044 	addi	r20,r20,1
 1081c38:	a0800007 	ldb	r2,0(r20)
 1081c3c:	10fffd26 	beq	r2,r3,1081c34 <process_command+0x4a8>
 1081c40:	010042b4 	movhi	r4,266
 1081c44:	213eb004 	addi	r4,r4,-1344
 1081c48:	108908c0 	call	108908c <puts>
 1081c4c:	a009883a 	mov	r4,r20
 1081c50:	10894380 	call	1089438 <strlen>
 1081c54:	147fffc4 	addi	r17,r2,-1
 1081c58:	8800c216 	blt	r17,zero,1081f64 <process_command+0x7d8>
 1081c5c:	040042b4 	movhi	r16,266
 1081c60:	84034f04 	addi	r16,r16,3388
 1081c64:	84804804 	addi	r18,r16,288
 1081c68:	00000306 	br	1081c78 <process_command+0x4ec>
 1081c6c:	84000304 	addi	r16,r16,12
 1081c70:	b5800304 	addi	r22,r22,12
 1081c74:	84bf1d26 	beq	r16,r18,10818ec <process_command+0x160>
 1081c78:	b1400017 	ldw	r5,0(r22)
 1081c7c:	a009883a 	mov	r4,r20
 1081c80:	880d883a 	mov	r6,r17
 1081c84:	10894d00 	call	10894d0 <strncmp>
 1081c88:	103ff81e 	bne	r2,zero,1081c6c <process_command+0x4e0>
 1081c8c:	81000017 	ldw	r4,0(r16)
 1081c90:	108908c0 	call	108908c <puts>
 1081c94:	003ff506 	br	1081c6c <process_command+0x4e0>
 1081c98:	a009883a 	mov	r4,r20
 1081c9c:	10830d40 	call	10830d4 <read_hex>
 1081ca0:	00c00284 	movi	r3,10
 1081ca4:	10c0a326 	beq	r2,r3,1081f34 <process_command+0x7a8>
 1081ca8:	00c001c4 	movi	r3,7
 1081cac:	18806e36 	bltu	r3,r2,1081e68 <process_command+0x6dc>
 1081cb0:	1009883a 	mov	r4,r2
 1081cb4:	014000c4 	movi	r5,3
 1081cb8:	d8800f15 	stw	r2,60(sp)
 1081cbc:	10831ec0 	call	10831ec <set_motor_dir>
 1081cc0:	d8800f17 	ldw	r2,60(sp)
 1081cc4:	010042b4 	movhi	r4,266
 1081cc8:	213eec04 	addi	r4,r4,-1104
 1081ccc:	100b883a 	mov	r5,r2
 1081cd0:	1088fa80 	call	1088fa8 <printf>
 1081cd4:	003f0506 	br	10818ec <process_command+0x160>
 1081cd8:	a009883a 	mov	r4,r20
 1081cdc:	10830d40 	call	10830d4 <read_hex>
 1081ce0:	00c00284 	movi	r3,10
 1081ce4:	10c06f26 	beq	r2,r3,1081ea4 <process_command+0x718>
 1081ce8:	00c001c4 	movi	r3,7
 1081cec:	18805e36 	bltu	r3,r2,1081e68 <process_command+0x6dc>
 1081cf0:	1009883a 	mov	r4,r2
 1081cf4:	01400084 	movi	r5,2
 1081cf8:	d8800f15 	stw	r2,60(sp)
 1081cfc:	10831ec0 	call	10831ec <set_motor_dir>
 1081d00:	d8800f17 	ldw	r2,60(sp)
 1081d04:	010042b4 	movhi	r4,266
 1081d08:	213ee404 	addi	r4,r4,-1136
 1081d0c:	100b883a 	mov	r5,r2
 1081d10:	1088fa80 	call	1088fa8 <printf>
 1081d14:	003ef506 	br	10818ec <process_command+0x160>
 1081d18:	a009883a 	mov	r4,r20
 1081d1c:	10830d40 	call	10830d4 <read_hex>
 1081d20:	1009883a 	mov	r4,r2
 1081d24:	10802780 	call	1080278 <set_target_heading>
 1081d28:	003ef006 	br	10818ec <process_command+0x160>
 1081d2c:	0009883a 	mov	r4,zero
 1081d30:	10802680 	call	1080268 <set_target_speed>
 1081d34:	0009883a 	mov	r4,zero
 1081d38:	10802780 	call	1080278 <set_target_heading>
 1081d3c:	10834a80 	call	10834a8 <get_depth>
 1081d40:	1009883a 	mov	r4,r2
 1081d44:	10802880 	call	1080288 <set_target_depth>
 1081d48:	010042b4 	movhi	r4,266
 1081d4c:	213ed304 	addi	r4,r4,-1204
 1081d50:	108908c0 	call	108908c <puts>
 1081d54:	003ee506 	br	10818ec <process_command+0x160>
 1081d58:	108159c0 	call	108159c <get_user_depth>
 1081d5c:	1009883a 	mov	r4,r2
 1081d60:	10831cc0 	call	10831cc <print_int>
 1081d64:	01000284 	movi	r4,10
 1081d68:	109d4040 	call	109d404 <alt_putchar>
 1081d6c:	003edf06 	br	10818ec <process_command+0x160>
 1081d70:	d9000404 	addi	r4,sp,16
 1081d74:	108292c0 	call	108292c <get_imu_orientation>
 1081d78:	d9000417 	ldw	r4,16(sp)
 1081d7c:	10831cc0 	call	10831cc <print_int>
 1081d80:	01000b04 	movi	r4,44
 1081d84:	109d4040 	call	109d404 <alt_putchar>
 1081d88:	d9000517 	ldw	r4,20(sp)
 1081d8c:	10831cc0 	call	10831cc <print_int>
 1081d90:	01000b04 	movi	r4,44
 1081d94:	109d4040 	call	109d404 <alt_putchar>
 1081d98:	d9000617 	ldw	r4,24(sp)
 1081d9c:	10831cc0 	call	10831cc <print_int>
 1081da0:	01000284 	movi	r4,10
 1081da4:	109d4040 	call	109d404 <alt_putchar>
 1081da8:	003ed006 	br	10818ec <process_command+0x160>
 1081dac:	108345c0 	call	108345c <get_pwm_freq>
 1081db0:	1009883a 	mov	r4,r2
 1081db4:	10831cc0 	call	10831cc <print_int>
 1081db8:	01000284 	movi	r4,10
 1081dbc:	109d4040 	call	109d404 <alt_putchar>
 1081dc0:	0009883a 	mov	r4,zero
 1081dc4:	10832c40 	call	10832c4 <get_motor_dir>
 1081dc8:	11003fcc 	andi	r4,r2,255
 1081dcc:	2100201c 	xori	r4,r4,128
 1081dd0:	213fe004 	addi	r4,r4,-128
 1081dd4:	109d4040 	call	109d404 <alt_putchar>
 1081dd8:	04000044 	movi	r16,1
 1081ddc:	04400204 	movi	r17,8
 1081de0:	01000b04 	movi	r4,44
 1081de4:	109d4040 	call	109d404 <alt_putchar>
 1081de8:	8009883a 	mov	r4,r16
 1081dec:	10832c40 	call	10832c4 <get_motor_dir>
 1081df0:	11003fcc 	andi	r4,r2,255
 1081df4:	2100201c 	xori	r4,r4,128
 1081df8:	84000044 	addi	r16,r16,1
 1081dfc:	213fe004 	addi	r4,r4,-128
 1081e00:	109d4040 	call	109d404 <alt_putchar>
 1081e04:	847ff61e 	bne	r16,r17,1081de0 <process_command+0x654>
 1081e08:	01000284 	movi	r4,10
 1081e0c:	109d4040 	call	109d404 <alt_putchar>
 1081e10:	0009883a 	mov	r4,zero
 1081e14:	10834300 	call	1083430 <get_motor_duty_cycle>
 1081e18:	1009883a 	mov	r4,r2
 1081e1c:	10831cc0 	call	10831cc <print_int>
 1081e20:	04000044 	movi	r16,1
 1081e24:	04400204 	movi	r17,8
 1081e28:	01000b04 	movi	r4,44
 1081e2c:	109d4040 	call	109d404 <alt_putchar>
 1081e30:	8009883a 	mov	r4,r16
 1081e34:	10834300 	call	1083430 <get_motor_duty_cycle>
 1081e38:	84000044 	addi	r16,r16,1
 1081e3c:	1009883a 	mov	r4,r2
 1081e40:	10831cc0 	call	10831cc <print_int>
 1081e44:	847ff81e 	bne	r16,r17,1081e28 <process_command+0x69c>
 1081e48:	01000284 	movi	r4,10
 1081e4c:	109d4040 	call	109d404 <alt_putchar>
 1081e50:	003ea606 	br	10818ec <process_command+0x160>
 1081e54:	a009883a 	mov	r4,r20
 1081e58:	10830d40 	call	10830d4 <read_hex>
 1081e5c:	1009883a 	mov	r4,r2
 1081e60:	10802680 	call	1080268 <set_target_speed>
 1081e64:	003ea106 	br	10818ec <process_command+0x160>
 1081e68:	010042b4 	movhi	r4,266
 1081e6c:	213edb04 	addi	r4,r4,-1172
 1081e70:	108908c0 	call	108908c <puts>
 1081e74:	003e9d06 	br	10818ec <process_command+0x160>
 1081e78:	010042b4 	movhi	r4,266
 1081e7c:	213eb804 	addi	r4,r4,-1312
 1081e80:	a00b883a 	mov	r5,r20
 1081e84:	1088fa80 	call	1088fa8 <printf>
 1081e88:	003e9806 	br	10818ec <process_command+0x160>
 1081e8c:	014042b4 	movhi	r5,266
 1081e90:	297eb604 	addi	r5,r5,-1320
 1081e94:	003f0e06 	br	1081ad0 <process_command+0x344>
 1081e98:	014042b4 	movhi	r5,266
 1081e9c:	297eb604 	addi	r5,r5,-1320
 1081ea0:	003f2906 	br	1081b48 <process_command+0x3bc>
 1081ea4:	0021883a 	mov	r16,zero
 1081ea8:	04400204 	movi	r17,8
 1081eac:	8009883a 	mov	r4,r16
 1081eb0:	01400084 	movi	r5,2
 1081eb4:	10831ec0 	call	10831ec <set_motor_dir>
 1081eb8:	010042b4 	movhi	r4,266
 1081ebc:	800b883a 	mov	r5,r16
 1081ec0:	213ee404 	addi	r4,r4,-1136
 1081ec4:	84000044 	addi	r16,r16,1
 1081ec8:	1088fa80 	call	1088fa8 <printf>
 1081ecc:	847ff71e 	bne	r16,r17,1081eac <process_command+0x720>
 1081ed0:	003e8606 	br	10818ec <process_command+0x160>
 1081ed4:	0021883a 	mov	r16,zero
 1081ed8:	04400204 	movi	r17,8
 1081edc:	8009883a 	mov	r4,r16
 1081ee0:	01400044 	movi	r5,1
 1081ee4:	10831ec0 	call	10831ec <set_motor_dir>
 1081ee8:	010042b4 	movhi	r4,266
 1081eec:	800b883a 	mov	r5,r16
 1081ef0:	213edf04 	addi	r4,r4,-1156
 1081ef4:	84000044 	addi	r16,r16,1
 1081ef8:	1088fa80 	call	1088fa8 <printf>
 1081efc:	847ff71e 	bne	r16,r17,1081edc <process_command+0x750>
 1081f00:	003e7a06 	br	10818ec <process_command+0x160>
 1081f04:	0021883a 	mov	r16,zero
 1081f08:	04400204 	movi	r17,8
 1081f0c:	8009883a 	mov	r4,r16
 1081f10:	000b883a 	mov	r5,zero
 1081f14:	10831ec0 	call	10831ec <set_motor_dir>
 1081f18:	010042b4 	movhi	r4,266
 1081f1c:	800b883a 	mov	r5,r16
 1081f20:	213ed604 	addi	r4,r4,-1192
 1081f24:	84000044 	addi	r16,r16,1
 1081f28:	1088fa80 	call	1088fa8 <printf>
 1081f2c:	847ff71e 	bne	r16,r17,1081f0c <process_command+0x780>
 1081f30:	003e6e06 	br	10818ec <process_command+0x160>
 1081f34:	0021883a 	mov	r16,zero
 1081f38:	04400204 	movi	r17,8
 1081f3c:	8009883a 	mov	r4,r16
 1081f40:	014000c4 	movi	r5,3
 1081f44:	10831ec0 	call	10831ec <set_motor_dir>
 1081f48:	010042b4 	movhi	r4,266
 1081f4c:	800b883a 	mov	r5,r16
 1081f50:	213eec04 	addi	r4,r4,-1104
 1081f54:	84000044 	addi	r16,r16,1
 1081f58:	1088fa80 	call	1088fa8 <printf>
 1081f5c:	847ff71e 	bne	r16,r17,1081f3c <process_command+0x7b0>
 1081f60:	003e6206 	br	10818ec <process_command+0x160>
 1081f64:	0023883a 	mov	r17,zero
 1081f68:	003f3c06 	br	1081c5c <process_command+0x4d0>
 1081f6c:	010042b4 	movhi	r4,266
 1081f70:	213ef404 	addi	r4,r4,-1072
 1081f74:	108908c0 	call	108908c <puts>
 1081f78:	003e5c06 	br	10818ec <process_command+0x160>
 1081f7c:	a1000084 	addi	r4,r20,2
 1081f80:	10830d40 	call	10830d4 <read_hex>
 1081f84:	1023883a 	mov	r17,r2
 1081f88:	0021883a 	mov	r16,zero
 1081f8c:	103ff716 	blt	r2,zero,1081f6c <process_command+0x7e0>
 1081f90:	04800204 	movi	r18,8
 1081f94:	8009883a 	mov	r4,r16
 1081f98:	880b883a 	mov	r5,r17
 1081f9c:	10832e40 	call	10832e4 <set_motor_duty_cycle>
 1081fa0:	010042b4 	movhi	r4,266
 1081fa4:	800b883a 	mov	r5,r16
 1081fa8:	213efa04 	addi	r4,r4,-1048
 1081fac:	84000044 	addi	r16,r16,1
 1081fb0:	880d883a 	mov	r6,r17
 1081fb4:	1088fa80 	call	1088fa8 <printf>
 1081fb8:	84bff61e 	bne	r16,r18,1081f94 <process_command+0x808>
 1081fbc:	003e4b06 	br	10818ec <process_command+0x160>

01081fc0 <main>:
 1081fc0:	deffdf04 	addi	sp,sp,-132
 1081fc4:	dfc02015 	stw	ra,128(sp)
 1081fc8:	1082e340 	call	1082e34 <init>
 1081fcc:	d809883a 	mov	r4,sp
 1081fd0:	01401fc4 	movi	r5,127
 1081fd4:	1082ffc0 	call	1082ffc <alt_getline>
 1081fd8:	d809883a 	mov	r4,sp
 1081fdc:	108178c0 	call	108178c <process_command>
 1081fe0:	003ffa06 	br	1081fcc <main+0xc>

01081fe4 <PID_Reset>:
 1081fe4:	20000215 	stw	zero,8(r4)
 1081fe8:	20000315 	stw	zero,12(r4)
 1081fec:	20000615 	stw	zero,24(r4)
 1081ff0:	20000715 	stw	zero,28(r4)
 1081ff4:	20000815 	stw	zero,32(r4)
 1081ff8:	20000915 	stw	zero,36(r4)
 1081ffc:	20000a15 	stw	zero,40(r4)
 1082000:	20000b15 	stw	zero,44(r4)
 1082004:	20000c15 	stw	zero,48(r4)
 1082008:	20000d15 	stw	zero,52(r4)
 108200c:	20000e15 	stw	zero,56(r4)
 1082010:	f800283a 	ret

01082014 <PID_Update>:
 1082014:	defff804 	addi	sp,sp,-32
 1082018:	dfc00715 	stw	ra,28(sp)
 108201c:	dd800615 	stw	r22,24(sp)
 1082020:	dd400515 	stw	r21,20(sp)
 1082024:	dd000415 	stw	r20,16(sp)
 1082028:	dcc00315 	stw	r19,12(sp)
 108202c:	dc800215 	stw	r18,8(sp)
 1082030:	dc400115 	stw	r17,4(sp)
 1082034:	dc000015 	stw	r16,0(sp)
 1082038:	21c00d17 	ldw	r7,52(r4)
 108203c:	2021883a 	mov	r16,r4
 1082040:	3023883a 	mov	r17,r6
 1082044:	21800c17 	ldw	r6,48(r4)
 1082048:	81400015 	stw	r5,0(r16)
 108204c:	2825883a 	mov	r18,r5
 1082050:	24400115 	stw	r17,4(r4)
 1082054:	014ffc34 	movhi	r5,16368
 1082058:	0009883a 	mov	r4,zero
 108205c:	10882380 	call	1088238 <__subdf3>
 1082060:	81800217 	ldw	r6,8(r16)
 1082064:	81c00317 	ldw	r7,12(r16)
 1082068:	1009883a 	mov	r4,r2
 108206c:	180b883a 	mov	r5,r3
 1082070:	10879cc0 	call	10879cc <__muldf3>
 1082074:	1009883a 	mov	r4,r2
 1082078:	180b883a 	mov	r5,r3
 108207c:	900d883a 	mov	r6,r18
 1082080:	880f883a 	mov	r7,r17
 1082084:	108656c0 	call	108656c <__adddf3>
 1082088:	85801117 	ldw	r22,68(r16)
 108208c:	85401217 	ldw	r21,72(r16)
 1082090:	85000f17 	ldw	r20,60(r16)
 1082094:	84c01017 	ldw	r19,64(r16)
 1082098:	81000e17 	ldw	r4,56(r16)
 108209c:	80800215 	stw	r2,8(r16)
 10820a0:	80c00315 	stw	r3,12(r16)
 10820a4:	85801315 	stw	r22,76(r16)
 10820a8:	85401415 	stw	r21,80(r16)
 10820ac:	85001115 	stw	r20,68(r16)
 10820b0:	84c01215 	stw	r19,72(r16)
 10820b4:	84800f15 	stw	r18,60(r16)
 10820b8:	84401015 	stw	r17,64(r16)
 10820bc:	00800044 	movi	r2,1
 10820c0:	11002a0e 	bge	r2,r4,108216c <PID_Update+0x158>
 10820c4:	9009883a 	mov	r4,r18
 10820c8:	880b883a 	mov	r5,r17
 10820cc:	a00d883a 	mov	r6,r20
 10820d0:	980f883a 	mov	r7,r19
 10820d4:	10882380 	call	1088238 <__subdf3>
 10820d8:	1009883a 	mov	r4,r2
 10820dc:	180b883a 	mov	r5,r3
 10820e0:	000d883a 	mov	r6,zero
 10820e4:	000f883a 	mov	r7,zero
 10820e8:	108656c0 	call	108656c <__adddf3>
 10820ec:	a009883a 	mov	r4,r20
 10820f0:	980b883a 	mov	r5,r19
 10820f4:	b00d883a 	mov	r6,r22
 10820f8:	a80f883a 	mov	r7,r21
 10820fc:	1025883a 	mov	r18,r2
 1082100:	1823883a 	mov	r17,r3
 1082104:	10882380 	call	1088238 <__subdf3>
 1082108:	100d883a 	mov	r6,r2
 108210c:	180f883a 	mov	r7,r3
 1082110:	9009883a 	mov	r4,r18
 1082114:	880b883a 	mov	r5,r17
 1082118:	108656c0 	call	108656c <__adddf3>
 108211c:	180b883a 	mov	r5,r3
 1082120:	1009883a 	mov	r4,r2
 1082124:	1088d700 	call	1088d70 <__truncdfsf2>
 1082128:	1009883a 	mov	r4,r2
 108212c:	01501034 	movhi	r5,16448
 1082130:	10860a40 	call	10860a4 <__divsf3>
 1082134:	1009883a 	mov	r4,r2
 1082138:	1088c600 	call	1088c60 <__extendsfdf2>
 108213c:	80800415 	stw	r2,16(r16)
 1082140:	80c00515 	stw	r3,20(r16)
 1082144:	dfc00717 	ldw	ra,28(sp)
 1082148:	dd800617 	ldw	r22,24(sp)
 108214c:	dd400517 	ldw	r21,20(sp)
 1082150:	dd000417 	ldw	r20,16(sp)
 1082154:	dcc00317 	ldw	r19,12(sp)
 1082158:	dc800217 	ldw	r18,8(sp)
 108215c:	dc400117 	ldw	r17,4(sp)
 1082160:	dc000017 	ldw	r16,0(sp)
 1082164:	dec00804 	addi	sp,sp,32
 1082168:	f800283a 	ret
 108216c:	21000044 	addi	r4,r4,1
 1082170:	80000415 	stw	zero,16(r16)
 1082174:	80000515 	stw	zero,20(r16)
 1082178:	81000e15 	stw	r4,56(r16)
 108217c:	003ff106 	br	1082144 <PID_Update+0x130>

01082180 <PID_Output>:
 1082180:	defffc04 	addi	sp,sp,-16
 1082184:	dfc00315 	stw	ra,12(sp)
 1082188:	dc800215 	stw	r18,8(sp)
 108218c:	dc400115 	stw	r17,4(sp)
 1082190:	dc000015 	stw	r16,0(sp)
 1082194:	2021883a 	mov	r16,r4
 1082198:	81400717 	ldw	r5,28(r16)
 108219c:	21000617 	ldw	r4,24(r4)
 10821a0:	81800017 	ldw	r6,0(r16)
 10821a4:	81c00117 	ldw	r7,4(r16)
 10821a8:	10879cc0 	call	10879cc <__muldf3>
 10821ac:	81000817 	ldw	r4,32(r16)
 10821b0:	81400917 	ldw	r5,36(r16)
 10821b4:	81800217 	ldw	r6,8(r16)
 10821b8:	81c00317 	ldw	r7,12(r16)
 10821bc:	1025883a 	mov	r18,r2
 10821c0:	1823883a 	mov	r17,r3
 10821c4:	10879cc0 	call	10879cc <__muldf3>
 10821c8:	9009883a 	mov	r4,r18
 10821cc:	880b883a 	mov	r5,r17
 10821d0:	100d883a 	mov	r6,r2
 10821d4:	180f883a 	mov	r7,r3
 10821d8:	108656c0 	call	108656c <__adddf3>
 10821dc:	81000a17 	ldw	r4,40(r16)
 10821e0:	81400b17 	ldw	r5,44(r16)
 10821e4:	81800417 	ldw	r6,16(r16)
 10821e8:	81c00517 	ldw	r7,20(r16)
 10821ec:	1025883a 	mov	r18,r2
 10821f0:	1823883a 	mov	r17,r3
 10821f4:	10879cc0 	call	10879cc <__muldf3>
 10821f8:	9009883a 	mov	r4,r18
 10821fc:	880b883a 	mov	r5,r17
 1082200:	100d883a 	mov	r6,r2
 1082204:	180f883a 	mov	r7,r3
 1082208:	108656c0 	call	108656c <__adddf3>
 108220c:	dfc00317 	ldw	ra,12(sp)
 1082210:	dc800217 	ldw	r18,8(sp)
 1082214:	dc400117 	ldw	r17,4(sp)
 1082218:	dc000017 	ldw	r16,0(sp)
 108221c:	dec00404 	addi	sp,sp,16
 1082220:	f800283a 	ret

01082224 <inverse_cubic>:
 1082224:	defffb04 	addi	sp,sp,-20
 1082228:	200d883a 	mov	r6,r4
 108222c:	280f883a 	mov	r7,r5
 1082230:	dfc00415 	stw	ra,16(sp)
 1082234:	dcc00315 	stw	r19,12(sp)
 1082238:	dc800215 	stw	r18,8(sp)
 108223c:	dc400115 	stw	r17,4(sp)
 1082240:	dc000015 	stw	r16,0(sp)
 1082244:	2023883a 	mov	r17,r4
 1082248:	2821883a 	mov	r16,r5
 108224c:	10879cc0 	call	10879cc <__muldf3>
 1082250:	01b0e2f4 	movhi	r6,50059
 1082254:	01d0f974 	movhi	r7,17381
 1082258:	1009883a 	mov	r4,r2
 108225c:	180b883a 	mov	r5,r3
 1082260:	318b0e04 	addi	r6,r6,11320
 1082264:	39f7a184 	addi	r7,r7,-8570
 1082268:	10879cc0 	call	10879cc <__muldf3>
 108226c:	01bfd474 	movhi	r6,65361
 1082270:	01d0d174 	movhi	r7,17221
 1082274:	8809883a 	mov	r4,r17
 1082278:	800b883a 	mov	r5,r16
 108227c:	31900004 	addi	r6,r6,16384
 1082280:	39df5644 	addi	r7,r7,32089
 1082284:	1027883a 	mov	r19,r2
 1082288:	1825883a 	mov	r18,r3
 108228c:	10879cc0 	call	10879cc <__muldf3>
 1082290:	9809883a 	mov	r4,r19
 1082294:	900b883a 	mov	r5,r18
 1082298:	100d883a 	mov	r6,r2
 108229c:	180f883a 	mov	r7,r3
 10822a0:	10882380 	call	1088238 <__subdf3>
 10822a4:	01824a74 	movhi	r6,2345
 10822a8:	01d0cef4 	movhi	r7,17211
 10822ac:	31960004 	addi	r6,r6,22528
 10822b0:	39c23c84 	addi	r7,r7,2290
 10822b4:	1009883a 	mov	r4,r2
 10822b8:	180b883a 	mov	r5,r3
 10822bc:	108656c0 	call	108656c <__adddf3>
 10822c0:	1009883a 	mov	r4,r2
 10822c4:	180b883a 	mov	r5,r3
 10822c8:	1083ab80 	call	1083ab8 <sqrt>
 10822cc:	01d07574 	movhi	r7,16853
 10822d0:	1009883a 	mov	r4,r2
 10822d4:	180b883a 	mov	r5,r3
 10822d8:	39eb1e44 	addi	r7,r7,-21383
 10822dc:	01830034 	movhi	r6,3072
 10822e0:	10879cc0 	call	10879cc <__muldf3>
 10822e4:	01abd434 	movhi	r6,44880
 10822e8:	01d0f474 	movhi	r7,17361
 10822ec:	8809883a 	mov	r4,r17
 10822f0:	800b883a 	mov	r5,r16
 10822f4:	31b00204 	addi	r6,r6,-16376
 10822f8:	39ec81c4 	addi	r7,r7,-19961
 10822fc:	1027883a 	mov	r19,r2
 1082300:	1825883a 	mov	r18,r3
 1082304:	10879cc0 	call	10879cc <__muldf3>
 1082308:	9809883a 	mov	r4,r19
 108230c:	900b883a 	mov	r5,r18
 1082310:	100d883a 	mov	r6,r2
 1082314:	180f883a 	mov	r7,r3
 1082318:	10882380 	call	1088238 <__subdf3>
 108231c:	01d0c874 	movhi	r7,17185
 1082320:	1009883a 	mov	r4,r2
 1082324:	180b883a 	mov	r5,r3
 1082328:	39cc4504 	addi	r7,r7,12564
 108232c:	01b31074 	movhi	r6,52289
 1082330:	108656c0 	call	108656c <__adddf3>
 1082334:	01968cb4 	movhi	r6,23090
 1082338:	01cff574 	movhi	r7,16341
 108233c:	1009883a 	mov	r4,r2
 1082340:	180b883a 	mov	r5,r3
 1082344:	31a92f84 	addi	r6,r6,-23362
 1082348:	39d551c4 	addi	r7,r7,21831
 108234c:	10836140 	call	1083614 <pow>
 1082350:	01b65f74 	movhi	r6,55677
 1082354:	01cfbcf4 	movhi	r7,16115
 1082358:	1009883a 	mov	r4,r2
 108235c:	180b883a 	mov	r5,r3
 1082360:	3184ee84 	addi	r6,r6,5050
 1082364:	39e0d544 	addi	r7,r7,-31915
 1082368:	1023883a 	mov	r17,r2
 108236c:	1821883a 	mov	r16,r3
 1082370:	10879cc0 	call	10879cc <__muldf3>
 1082374:	011fcc34 	movhi	r4,32560
 1082378:	014fefb4 	movhi	r5,16318
 108237c:	21187204 	addi	r4,r4,25032
 1082380:	29732144 	addi	r5,r5,-13179
 1082384:	100d883a 	mov	r6,r2
 1082388:	180f883a 	mov	r7,r3
 108238c:	10882380 	call	1088238 <__subdf3>
 1082390:	01505434 	movhi	r5,16720
 1082394:	880d883a 	mov	r6,r17
 1082398:	800f883a 	mov	r7,r16
 108239c:	295e7fc4 	addi	r5,r5,31231
 10823a0:	01200034 	movhi	r4,32768
 10823a4:	1027883a 	mov	r19,r2
 10823a8:	1825883a 	mov	r18,r3
 10823ac:	1086e080 	call	1086e08 <__divdf3>
 10823b0:	9809883a 	mov	r4,r19
 10823b4:	900b883a 	mov	r5,r18
 10823b8:	100d883a 	mov	r6,r2
 10823bc:	180f883a 	mov	r7,r3
 10823c0:	108656c0 	call	108656c <__adddf3>
 10823c4:	0191ebb4 	movhi	r6,18350
 10823c8:	01d00534 	movhi	r7,16404
 10823cc:	31851ec4 	addi	r6,r6,5243
 10823d0:	39deb844 	addi	r7,r7,31457
 10823d4:	1009883a 	mov	r4,r2
 10823d8:	180b883a 	mov	r5,r3
 10823dc:	10879cc0 	call	10879cc <__muldf3>
 10823e0:	1009883a 	mov	r4,r2
 10823e4:	180b883a 	mov	r5,r3
 10823e8:	1088b080 	call	1088b08 <__fixdfsi>
 10823ec:	dfc00417 	ldw	ra,16(sp)
 10823f0:	dcc00317 	ldw	r19,12(sp)
 10823f4:	dc800217 	ldw	r18,8(sp)
 10823f8:	dc400117 	ldw	r17,4(sp)
 10823fc:	dc000017 	ldw	r16,0(sp)
 1082400:	dec00504 	addi	sp,sp,20
 1082404:	f800283a 	ret

01082408 <init_lookup>:
 1082408:	defff804 	addi	sp,sp,-32
 108240c:	dc800215 	stw	r18,8(sp)
 1082410:	048042b4 	movhi	r18,266
 1082414:	9492c004 	addi	r18,r18,19200
 1082418:	dd800615 	stw	r22,24(sp)
 108241c:	dcc00315 	stw	r19,12(sp)
 1082420:	dfc00715 	stw	ra,28(sp)
 1082424:	dd400515 	stw	r21,20(sp)
 1082428:	dd000415 	stw	r20,16(sp)
 108242c:	dc400115 	stw	r17,4(sp)
 1082430:	dc000015 	stw	r16,0(sp)
 1082434:	04ffe704 	movi	r19,-100
 1082438:	9580c804 	addi	r22,r18,800
 108243c:	9809883a 	mov	r4,r19
 1082440:	1088b900 	call	1088b90 <__floatsidf>
 1082444:	1009883a 	mov	r4,r2
 1082448:	180b883a 	mov	r5,r3
 108244c:	000d883a 	mov	r6,zero
 1082450:	01d01674 	movhi	r7,16473
 1082454:	1086e080 	call	1086e08 <__divdf3>
 1082458:	1009883a 	mov	r4,r2
 108245c:	180b883a 	mov	r5,r3
 1082460:	100d883a 	mov	r6,r2
 1082464:	180f883a 	mov	r7,r3
 1082468:	1023883a 	mov	r17,r2
 108246c:	1821883a 	mov	r16,r3
 1082470:	10879cc0 	call	10879cc <__muldf3>
 1082474:	01b0e2f4 	movhi	r6,50059
 1082478:	01d0f974 	movhi	r7,17381
 108247c:	1009883a 	mov	r4,r2
 1082480:	180b883a 	mov	r5,r3
 1082484:	318b0e04 	addi	r6,r6,11320
 1082488:	39f7a184 	addi	r7,r7,-8570
 108248c:	10879cc0 	call	10879cc <__muldf3>
 1082490:	01bfd474 	movhi	r6,65361
 1082494:	01d0d174 	movhi	r7,17221
 1082498:	8809883a 	mov	r4,r17
 108249c:	800b883a 	mov	r5,r16
 10824a0:	31900004 	addi	r6,r6,16384
 10824a4:	39df5644 	addi	r7,r7,32089
 10824a8:	102b883a 	mov	r21,r2
 10824ac:	1829883a 	mov	r20,r3
 10824b0:	10879cc0 	call	10879cc <__muldf3>
 10824b4:	a809883a 	mov	r4,r21
 10824b8:	a00b883a 	mov	r5,r20
 10824bc:	100d883a 	mov	r6,r2
 10824c0:	180f883a 	mov	r7,r3
 10824c4:	10882380 	call	1088238 <__subdf3>
 10824c8:	01824a74 	movhi	r6,2345
 10824cc:	01d0cef4 	movhi	r7,17211
 10824d0:	31960004 	addi	r6,r6,22528
 10824d4:	39c23c84 	addi	r7,r7,2290
 10824d8:	1009883a 	mov	r4,r2
 10824dc:	180b883a 	mov	r5,r3
 10824e0:	108656c0 	call	108656c <__adddf3>
 10824e4:	1009883a 	mov	r4,r2
 10824e8:	180b883a 	mov	r5,r3
 10824ec:	1083ab80 	call	1083ab8 <sqrt>
 10824f0:	01d07574 	movhi	r7,16853
 10824f4:	1009883a 	mov	r4,r2
 10824f8:	180b883a 	mov	r5,r3
 10824fc:	39eb1e44 	addi	r7,r7,-21383
 1082500:	01830034 	movhi	r6,3072
 1082504:	10879cc0 	call	10879cc <__muldf3>
 1082508:	01abd434 	movhi	r6,44880
 108250c:	01d0f474 	movhi	r7,17361
 1082510:	8809883a 	mov	r4,r17
 1082514:	800b883a 	mov	r5,r16
 1082518:	31b00204 	addi	r6,r6,-16376
 108251c:	39ec81c4 	addi	r7,r7,-19961
 1082520:	102b883a 	mov	r21,r2
 1082524:	1829883a 	mov	r20,r3
 1082528:	10879cc0 	call	10879cc <__muldf3>
 108252c:	a809883a 	mov	r4,r21
 1082530:	a00b883a 	mov	r5,r20
 1082534:	100d883a 	mov	r6,r2
 1082538:	180f883a 	mov	r7,r3
 108253c:	10882380 	call	1088238 <__subdf3>
 1082540:	01d0c874 	movhi	r7,17185
 1082544:	1009883a 	mov	r4,r2
 1082548:	180b883a 	mov	r5,r3
 108254c:	39cc4504 	addi	r7,r7,12564
 1082550:	01b31074 	movhi	r6,52289
 1082554:	108656c0 	call	108656c <__adddf3>
 1082558:	01968cb4 	movhi	r6,23090
 108255c:	01cff574 	movhi	r7,16341
 1082560:	1009883a 	mov	r4,r2
 1082564:	180b883a 	mov	r5,r3
 1082568:	31a92f84 	addi	r6,r6,-23362
 108256c:	39d551c4 	addi	r7,r7,21831
 1082570:	10836140 	call	1083614 <pow>
 1082574:	01b65f74 	movhi	r6,55677
 1082578:	01cfbcf4 	movhi	r7,16115
 108257c:	1009883a 	mov	r4,r2
 1082580:	180b883a 	mov	r5,r3
 1082584:	3184ee84 	addi	r6,r6,5050
 1082588:	39e0d544 	addi	r7,r7,-31915
 108258c:	1023883a 	mov	r17,r2
 1082590:	1821883a 	mov	r16,r3
 1082594:	10879cc0 	call	10879cc <__muldf3>
 1082598:	011fcc34 	movhi	r4,32560
 108259c:	014fefb4 	movhi	r5,16318
 10825a0:	21187204 	addi	r4,r4,25032
 10825a4:	29732144 	addi	r5,r5,-13179
 10825a8:	100d883a 	mov	r6,r2
 10825ac:	180f883a 	mov	r7,r3
 10825b0:	10882380 	call	1088238 <__subdf3>
 10825b4:	01505434 	movhi	r5,16720
 10825b8:	295e7fc4 	addi	r5,r5,31231
 10825bc:	01200034 	movhi	r4,32768
 10825c0:	880d883a 	mov	r6,r17
 10825c4:	800f883a 	mov	r7,r16
 10825c8:	102b883a 	mov	r21,r2
 10825cc:	1829883a 	mov	r20,r3
 10825d0:	1086e080 	call	1086e08 <__divdf3>
 10825d4:	a809883a 	mov	r4,r21
 10825d8:	a00b883a 	mov	r5,r20
 10825dc:	100d883a 	mov	r6,r2
 10825e0:	180f883a 	mov	r7,r3
 10825e4:	108656c0 	call	108656c <__adddf3>
 10825e8:	0191ebb4 	movhi	r6,18350
 10825ec:	01d00534 	movhi	r7,16404
 10825f0:	1009883a 	mov	r4,r2
 10825f4:	180b883a 	mov	r5,r3
 10825f8:	31851ec4 	addi	r6,r6,5243
 10825fc:	39deb844 	addi	r7,r7,31457
 1082600:	10879cc0 	call	10879cc <__muldf3>
 1082604:	1009883a 	mov	r4,r2
 1082608:	180b883a 	mov	r5,r3
 108260c:	94800104 	addi	r18,r18,4
 1082610:	1088b080 	call	1088b08 <__fixdfsi>
 1082614:	90bfff15 	stw	r2,-4(r18)
 1082618:	9cc00044 	addi	r19,r19,1
 108261c:	95bf871e 	bne	r18,r22,108243c <init_lookup+0x34>
 1082620:	dfc00717 	ldw	ra,28(sp)
 1082624:	dd800617 	ldw	r22,24(sp)
 1082628:	dd400517 	ldw	r21,20(sp)
 108262c:	dd000417 	ldw	r20,16(sp)
 1082630:	dcc00317 	ldw	r19,12(sp)
 1082634:	dc800217 	ldw	r18,8(sp)
 1082638:	dc400117 	ldw	r17,4(sp)
 108263c:	dc000017 	ldw	r16,0(sp)
 1082640:	dec00804 	addi	sp,sp,32
 1082644:	f800283a 	ret

01082648 <pwm_of_force>:
 1082648:	01b0a3f4 	movhi	r6,49807
 108264c:	01cff934 	movhi	r7,16356
 1082650:	defffd04 	addi	sp,sp,-12
 1082654:	31970a44 	addi	r6,r6,23593
 1082658:	39ca3d44 	addi	r7,r7,10485
 108265c:	dc400115 	stw	r17,4(sp)
 1082660:	dc000015 	stw	r16,0(sp)
 1082664:	dfc00215 	stw	ra,8(sp)
 1082668:	2023883a 	mov	r17,r4
 108266c:	2821883a 	mov	r16,r5
 1082670:	108780c0 	call	108780c <__gedf2>
 1082674:	01b0a3f4 	movhi	r6,49807
 1082678:	31970a44 	addi	r6,r6,23593
 108267c:	00804816 	blt	zero,r2,10827a0 <pwm_of_force+0x158>
 1082680:	01eff934 	movhi	r7,49124
 1082684:	39ca3d44 	addi	r7,r7,10485
 1082688:	8809883a 	mov	r4,r17
 108268c:	800b883a 	mov	r5,r16
 1082690:	10878ec0 	call	10878ec <__ledf2>
 1082694:	10001d16 	blt	r2,zero,108270c <pwm_of_force+0xc4>
 1082698:	000d883a 	mov	r6,zero
 108269c:	01cffc34 	movhi	r7,16368
 10826a0:	8809883a 	mov	r4,r17
 10826a4:	800b883a 	mov	r5,r16
 10826a8:	108656c0 	call	108656c <__adddf3>
 10826ac:	1009883a 	mov	r4,r2
 10826b0:	180b883a 	mov	r5,r3
 10826b4:	000d883a 	mov	r6,zero
 10826b8:	01d01a74 	movhi	r7,16489
 10826bc:	10879cc0 	call	10879cc <__muldf3>
 10826c0:	1009883a 	mov	r4,r2
 10826c4:	180b883a 	mov	r5,r3
 10826c8:	000d883a 	mov	r6,zero
 10826cc:	01cff834 	movhi	r7,16352
 10826d0:	10879cc0 	call	10879cc <__muldf3>
 10826d4:	180b883a 	mov	r5,r3
 10826d8:	1009883a 	mov	r4,r2
 10826dc:	1088b080 	call	1088b08 <__fixdfsi>
 10826e0:	1085883a 	add	r2,r2,r2
 10826e4:	00c042b4 	movhi	r3,266
 10826e8:	1085883a 	add	r2,r2,r2
 10826ec:	18d2c004 	addi	r3,r3,19200
 10826f0:	1885883a 	add	r2,r3,r2
 10826f4:	10800017 	ldw	r2,0(r2)
 10826f8:	dfc00217 	ldw	ra,8(sp)
 10826fc:	dc400117 	ldw	r17,4(sp)
 1082700:	dc000017 	ldw	r16,0(sp)
 1082704:	dec00304 	addi	sp,sp,12
 1082708:	f800283a 	ret
 108270c:	01b0a3f4 	movhi	r6,49807
 1082710:	01cff934 	movhi	r7,16356
 1082714:	8809883a 	mov	r4,r17
 1082718:	800b883a 	mov	r5,r16
 108271c:	31970a44 	addi	r6,r6,23593
 1082720:	39ca3d44 	addi	r7,r7,10485
 1082724:	108656c0 	call	108656c <__adddf3>
 1082728:	019f2174 	movhi	r6,31877
 108272c:	01cfeab4 	movhi	r7,16298
 1082730:	1009883a 	mov	r4,r2
 1082734:	180b883a 	mov	r5,r3
 1082738:	31ad7744 	addi	r6,r6,-18979
 108273c:	39ecf404 	addi	r7,r7,-19504
 1082740:	1086e080 	call	1086e08 <__divdf3>
 1082744:	0191ebb4 	movhi	r6,18350
 1082748:	01d00534 	movhi	r7,16404
 108274c:	31851ec4 	addi	r6,r6,5243
 1082750:	39deb844 	addi	r7,r7,31457
 1082754:	1009883a 	mov	r4,r2
 1082758:	180b883a 	mov	r5,r3
 108275c:	10879cc0 	call	10879cc <__muldf3>
 1082760:	180b883a 	mov	r5,r3
 1082764:	1009883a 	mov	r4,r2
 1082768:	1088b080 	call	1088b08 <__fixdfsi>
 108276c:	1009883a 	mov	r4,r2
 1082770:	1088b900 	call	1088b90 <__floatsidf>
 1082774:	018cccf4 	movhi	r6,13107
 1082778:	01d018f4 	movhi	r7,16483
 108277c:	1009883a 	mov	r4,r2
 1082780:	180b883a 	mov	r5,r3
 1082784:	318cccc4 	addi	r6,r6,13107
 1082788:	39ccccc4 	addi	r7,r7,13107
 108278c:	10882380 	call	1088238 <__subdf3>
 1082790:	1009883a 	mov	r4,r2
 1082794:	180b883a 	mov	r5,r3
 1082798:	1088b080 	call	1088b08 <__fixdfsi>
 108279c:	003fd606 	br	10826f8 <pwm_of_force+0xb0>
 10827a0:	01cff934 	movhi	r7,16356
 10827a4:	8809883a 	mov	r4,r17
 10827a8:	800b883a 	mov	r5,r16
 10827ac:	39ca3d44 	addi	r7,r7,10485
 10827b0:	10882380 	call	1088238 <__subdf3>
 10827b4:	019c2934 	movhi	r6,28836
 10827b8:	01cfe9f4 	movhi	r7,16295
 10827bc:	1009883a 	mov	r4,r2
 10827c0:	180b883a 	mov	r5,r3
 10827c4:	31b5c284 	addi	r6,r6,-10486
 10827c8:	39c28f44 	addi	r7,r7,2621
 10827cc:	1086e080 	call	1086e08 <__divdf3>
 10827d0:	0191ebb4 	movhi	r6,18350
 10827d4:	01d00534 	movhi	r7,16404
 10827d8:	31851ec4 	addi	r6,r6,5243
 10827dc:	39deb844 	addi	r7,r7,31457
 10827e0:	1009883a 	mov	r4,r2
 10827e4:	180b883a 	mov	r5,r3
 10827e8:	10879cc0 	call	10879cc <__muldf3>
 10827ec:	180b883a 	mov	r5,r3
 10827f0:	1009883a 	mov	r4,r2
 10827f4:	1088b080 	call	1088b08 <__fixdfsi>
 10827f8:	1009883a 	mov	r4,r2
 10827fc:	1088b900 	call	1088b90 <__floatsidf>
 1082800:	018cccf4 	movhi	r6,13107
 1082804:	01d018f4 	movhi	r7,16483
 1082808:	1009883a 	mov	r4,r2
 108280c:	180b883a 	mov	r5,r3
 1082810:	318cccc4 	addi	r6,r6,13107
 1082814:	39ccccc4 	addi	r7,r7,13107
 1082818:	108656c0 	call	108656c <__adddf3>
 108281c:	1009883a 	mov	r4,r2
 1082820:	180b883a 	mov	r5,r3
 1082824:	1088b080 	call	1088b08 <__fixdfsi>
 1082828:	003fb306 	br	10826f8 <pwm_of_force+0xb0>

0108282c <read_interrupt>:
 108282c:	00804434 	movhi	r2,272
 1082830:	defffa04 	addi	sp,sp,-24
 1082834:	10842804 	addi	r2,r2,4256
 1082838:	dfc00515 	stw	ra,20(sp)
 108283c:	dc000415 	stw	r16,16(sp)
 1082840:	10800037 	ldwio	r2,0(r2)
 1082844:	1007d43a 	srai	r3,r2,16
 1082848:	18001a26 	beq	r3,zero,10828b4 <read_interrupt+0x88>
 108284c:	11003fcc 	andi	r4,r2,255
 1082850:	2100201c 	xori	r4,r4,128
 1082854:	213fe004 	addi	r4,r4,-128
 1082858:	00c00904 	movi	r3,36
 108285c:	20c01926 	beq	r4,r3,10828c4 <read_interrupt+0x98>
 1082860:	d0e76417 	ldw	r3,-25200(gp)
 1082864:	00c0130e 	bge	zero,r3,10828b4 <read_interrupt+0x88>
 1082868:	040042b4 	movhi	r16,266
 108286c:	8412ad04 	addi	r16,r16,19124
 1082870:	19000044 	addi	r4,r3,1
 1082874:	80c7883a 	add	r3,r16,r3
 1082878:	18800005 	stb	r2,0(r3)
 108287c:	d1276415 	stw	r4,-25200(gp)
 1082880:	00800884 	movi	r2,34
 1082884:	20800b1e 	bne	r4,r2,10828b4 <read_interrupt+0x88>
 1082888:	010042b4 	movhi	r4,266
 108288c:	21013004 	addi	r4,r4,1216
 1082890:	800b883a 	mov	r5,r16
 1082894:	01800184 	movi	r6,6
 1082898:	80000885 	stb	zero,34(r16)
 108289c:	d0276415 	stw	zero,-25200(gp)
 10828a0:	10894d00 	call	10894d0 <strncmp>
 10828a4:	1000031e 	bne	r2,zero,10828b4 <read_interrupt+0x88>
 10828a8:	80800847 	ldb	r2,33(r16)
 10828ac:	00c00b04 	movi	r3,44
 10828b0:	10c00626 	beq	r2,r3,10828cc <read_interrupt+0xa0>
 10828b4:	dfc00517 	ldw	ra,20(sp)
 10828b8:	dc000417 	ldw	r16,16(sp)
 10828bc:	dec00604 	addi	sp,sp,24
 10828c0:	f800283a 	ret
 10828c4:	d0e76417 	ldw	r3,-25200(gp)
 10828c8:	003fe706 	br	1082868 <read_interrupt+0x3c>
 10828cc:	80c00607 	ldb	r3,24(r16)
 10828d0:	18bff81e 	bne	r3,r2,10828b4 <read_interrupt+0x88>
 10828d4:	808003c7 	ldb	r2,15(r16)
 10828d8:	10fff61e 	bne	r2,r3,10828b4 <read_interrupt+0x88>
 10828dc:	80c00187 	ldb	r3,6(r16)
 10828e0:	18bff41e 	bne	r3,r2,10828b4 <read_interrupt+0x88>
 10828e4:	d8800104 	addi	r2,sp,4
 10828e8:	014042b4 	movhi	r5,266
 10828ec:	29413204 	addi	r5,r5,1224
 10828f0:	d9800304 	addi	r6,sp,12
 10828f4:	d9c00204 	addi	r7,sp,8
 10828f8:	8009883a 	mov	r4,r16
 10828fc:	d8800015 	stw	r2,0(sp)
 1082900:	10891640 	call	1089164 <sscanf>
 1082904:	d9000317 	ldw	r4,12(sp)
 1082908:	10864f40 	call	10864f4 <__fixsfsi>
 108290c:	d9000217 	ldw	r4,8(sp)
 1082910:	d0a76815 	stw	r2,-25184(gp)
 1082914:	10864f40 	call	10864f4 <__fixsfsi>
 1082918:	d9000117 	ldw	r4,4(sp)
 108291c:	d0a76715 	stw	r2,-25188(gp)
 1082920:	10864f40 	call	10864f4 <__fixsfsi>
 1082924:	d0a76615 	stw	r2,-25192(gp)
 1082928:	003fe206 	br	10828b4 <read_interrupt+0x88>

0108292c <get_imu_orientation>:
 108292c:	d0e76717 	ldw	r3,-25188(gp)
 1082930:	d0a76617 	ldw	r2,-25192(gp)
 1082934:	d1676817 	ldw	r5,-25184(gp)
 1082938:	20c00115 	stw	r3,4(r4)
 108293c:	20800215 	stw	r2,8(r4)
 1082940:	21400015 	stw	r5,0(r4)
 1082944:	f800283a 	ret

01082948 <rs232_init>:
 1082948:	d0a76503 	ldbu	r2,-25196(gp)
 108294c:	1000131e 	bne	r2,zero,108299c <rs232_init+0x54>
 1082950:	defffd04 	addi	sp,sp,-12
 1082954:	dc000115 	stw	r16,4(sp)
 1082958:	01804234 	movhi	r6,264
 108295c:	04000044 	movi	r16,1
 1082960:	318a0b04 	addi	r6,r6,10284
 1082964:	d8000015 	stw	zero,0(sp)
 1082968:	0009883a 	mov	r4,zero
 108296c:	800b883a 	mov	r5,r16
 1082970:	000f883a 	mov	r7,zero
 1082974:	00800044 	movi	r2,1
 1082978:	dfc00215 	stw	ra,8(sp)
 108297c:	d0a76505 	stb	r2,-25196(gp)
 1082980:	109cb480 	call	109cb48 <alt_ic_isr_register>
 1082984:	00804434 	movhi	r2,272
 1082988:	10842904 	addi	r2,r2,4260
 108298c:	14000035 	stwio	r16,0(r2)
 1082990:	dfc00217 	ldw	ra,8(sp)
 1082994:	dc000117 	ldw	r16,4(sp)
 1082998:	dec00304 	addi	sp,sp,12
 108299c:	f800283a 	ret

010829a0 <checksum_byte>:
 10829a0:	20c00003 	ldbu	r3,0(r4)
 10829a4:	18803fcc 	andi	r2,r3,255
 10829a8:	1080201c 	xori	r2,r2,128
 10829ac:	10bfe004 	addi	r2,r2,-128
 10829b0:	10000926 	beq	r2,zero,10829d8 <checksum_byte+0x38>
 10829b4:	0005883a 	mov	r2,zero
 10829b8:	21000044 	addi	r4,r4,1
 10829bc:	1884f03a 	xor	r2,r3,r2
 10829c0:	20c00003 	ldbu	r3,0(r4)
 10829c4:	19403fcc 	andi	r5,r3,255
 10829c8:	2940201c 	xori	r5,r5,128
 10829cc:	297fe004 	addi	r5,r5,-128
 10829d0:	283ff91e 	bne	r5,zero,10829b8 <checksum_byte+0x18>
 10829d4:	f800283a 	ret
 10829d8:	0005883a 	mov	r2,zero
 10829dc:	f800283a 	ret

010829e0 <checksum_short>:
 10829e0:	21400003 	ldbu	r5,0(r4)
 10829e4:	28803fcc 	andi	r2,r5,255
 10829e8:	1080201c 	xori	r2,r2,128
 10829ec:	10bfe004 	addi	r2,r2,-128
 10829f0:	10001926 	beq	r2,zero,1082a58 <checksum_short+0x78>
 10829f4:	0005883a 	mov	r2,zero
 10829f8:	10ffffcc 	andi	r3,r2,65535
 10829fc:	1804923a 	slli	r2,r3,8
 1082a00:	1806d23a 	srli	r3,r3,8
 1082a04:	29403fcc 	andi	r5,r5,255
 1082a08:	2940201c 	xori	r5,r5,128
 1082a0c:	297fe004 	addi	r5,r5,-128
 1082a10:	10c6b03a 	or	r3,r2,r3
 1082a14:	1944f03a 	xor	r2,r3,r5
 1082a18:	10c03fcc 	andi	r3,r2,255
 1082a1c:	1807d13a 	srai	r3,r3,4
 1082a20:	21000044 	addi	r4,r4,1
 1082a24:	21400003 	ldbu	r5,0(r4)
 1082a28:	10c4f03a 	xor	r2,r2,r3
 1082a2c:	10ffffcc 	andi	r3,r2,65535
 1082a30:	1806933a 	slli	r3,r3,12
 1082a34:	29803fcc 	andi	r6,r5,255
 1082a38:	3180201c 	xori	r6,r6,128
 1082a3c:	10c4f03a 	xor	r2,r2,r3
 1082a40:	10c03fcc 	andi	r3,r2,255
 1082a44:	1806917a 	slli	r3,r3,5
 1082a48:	31bfe004 	addi	r6,r6,-128
 1082a4c:	10c4f03a 	xor	r2,r2,r3
 1082a50:	303fe91e 	bne	r6,zero,10829f8 <checksum_short+0x18>
 1082a54:	f800283a 	ret
 1082a58:	0005883a 	mov	r2,zero
 1082a5c:	f800283a 	ret

01082a60 <write_cmd>:
 1082a60:	d0a00117 	ldw	r2,-32764(gp)
 1082a64:	deffbf04 	addi	sp,sp,-260
 1082a68:	dfc04015 	stw	ra,256(sp)
 1082a6c:	200d883a 	mov	r6,r4
 1082a70:	10008526 	beq	r2,zero,1082c88 <write_cmd+0x228>
 1082a74:	00c00044 	movi	r3,1
 1082a78:	10c06226 	beq	r2,r3,1082c04 <write_cmd+0x1a4>
 1082a7c:	21400003 	ldbu	r5,0(r4)
 1082a80:	000f883a 	mov	r7,zero
 1082a84:	28803fcc 	andi	r2,r5,255
 1082a88:	1080201c 	xori	r2,r2,128
 1082a8c:	10bfe004 	addi	r2,r2,-128
 1082a90:	10001a26 	beq	r2,zero,1082afc <write_cmd+0x9c>
 1082a94:	2011883a 	mov	r8,r4
 1082a98:	000f883a 	mov	r7,zero
 1082a9c:	39ffffcc 	andi	r7,r7,65535
 1082aa0:	3804923a 	slli	r2,r7,8
 1082aa4:	380ed23a 	srli	r7,r7,8
 1082aa8:	29403fcc 	andi	r5,r5,255
 1082aac:	2940201c 	xori	r5,r5,128
 1082ab0:	297fe004 	addi	r5,r5,-128
 1082ab4:	11ceb03a 	or	r7,r2,r7
 1082ab8:	3944f03a 	xor	r2,r7,r5
 1082abc:	11c03fcc 	andi	r7,r2,255
 1082ac0:	380fd13a 	srai	r7,r7,4
 1082ac4:	42000044 	addi	r8,r8,1
 1082ac8:	41400003 	ldbu	r5,0(r8)
 1082acc:	11cef03a 	xor	r7,r2,r7
 1082ad0:	38ffffcc 	andi	r3,r7,65535
 1082ad4:	1806933a 	slli	r3,r3,12
 1082ad8:	28803fcc 	andi	r2,r5,255
 1082adc:	1080201c 	xori	r2,r2,128
 1082ae0:	38cef03a 	xor	r7,r7,r3
 1082ae4:	38c03fcc 	andi	r3,r7,255
 1082ae8:	1806917a 	slli	r3,r3,5
 1082aec:	10bfe004 	addi	r2,r2,-128
 1082af0:	38cef03a 	xor	r7,r7,r3
 1082af4:	103fe91e 	bne	r2,zero,1082a9c <write_cmd+0x3c>
 1082af8:	39ffffcc 	andi	r7,r7,65535
 1082afc:	014042b4 	movhi	r5,266
 1082b00:	29413b04 	addi	r5,r5,1260
 1082b04:	d809883a 	mov	r4,sp
 1082b08:	10890f80 	call	10890f8 <sprintf>
 1082b0c:	d809883a 	mov	r4,sp
 1082b10:	10894380 	call	1089438 <strlen>
 1082b14:	00c04434 	movhi	r3,272
 1082b18:	18c42904 	addi	r3,r3,4260
 1082b1c:	19000037 	ldwio	r4,0(r3)
 1082b20:	2009d43a 	srai	r4,r4,16
 1082b24:	20804b0e 	bge	r4,r2,1082c54 <write_cmd+0x1f4>
 1082b28:	19000037 	ldwio	r4,0(r3)
 1082b2c:	2009d43a 	srai	r4,r4,16
 1082b30:	2080480e 	bge	r4,r2,1082c54 <write_cmd+0x1f4>
 1082b34:	19000037 	ldwio	r4,0(r3)
 1082b38:	2009d43a 	srai	r4,r4,16
 1082b3c:	2080450e 	bge	r4,r2,1082c54 <write_cmd+0x1f4>
 1082b40:	19000037 	ldwio	r4,0(r3)
 1082b44:	2009d43a 	srai	r4,r4,16
 1082b48:	2080420e 	bge	r4,r2,1082c54 <write_cmd+0x1f4>
 1082b4c:	19000037 	ldwio	r4,0(r3)
 1082b50:	2009d43a 	srai	r4,r4,16
 1082b54:	20803f0e 	bge	r4,r2,1082c54 <write_cmd+0x1f4>
 1082b58:	19000037 	ldwio	r4,0(r3)
 1082b5c:	2009d43a 	srai	r4,r4,16
 1082b60:	20803c0e 	bge	r4,r2,1082c54 <write_cmd+0x1f4>
 1082b64:	19000037 	ldwio	r4,0(r3)
 1082b68:	2009d43a 	srai	r4,r4,16
 1082b6c:	2080390e 	bge	r4,r2,1082c54 <write_cmd+0x1f4>
 1082b70:	19000037 	ldwio	r4,0(r3)
 1082b74:	2009d43a 	srai	r4,r4,16
 1082b78:	2080360e 	bge	r4,r2,1082c54 <write_cmd+0x1f4>
 1082b7c:	19000037 	ldwio	r4,0(r3)
 1082b80:	2009d43a 	srai	r4,r4,16
 1082b84:	2080330e 	bge	r4,r2,1082c54 <write_cmd+0x1f4>
 1082b88:	18c00037 	ldwio	r3,0(r3)
 1082b8c:	1807d43a 	srai	r3,r3,16
 1082b90:	1880300e 	bge	r3,r2,1082c54 <write_cmd+0x1f4>
 1082b94:	00c04434 	movhi	r3,272
 1082b98:	18c42904 	addi	r3,r3,4260
 1082b9c:	19000037 	ldwio	r4,0(r3)
 1082ba0:	2009d43a 	srai	r4,r4,16
 1082ba4:	20802b0e 	bge	r4,r2,1082c54 <write_cmd+0x1f4>
 1082ba8:	19000037 	ldwio	r4,0(r3)
 1082bac:	2009d43a 	srai	r4,r4,16
 1082bb0:	2080280e 	bge	r4,r2,1082c54 <write_cmd+0x1f4>
 1082bb4:	19000037 	ldwio	r4,0(r3)
 1082bb8:	2009d43a 	srai	r4,r4,16
 1082bbc:	2080250e 	bge	r4,r2,1082c54 <write_cmd+0x1f4>
 1082bc0:	19000037 	ldwio	r4,0(r3)
 1082bc4:	2009d43a 	srai	r4,r4,16
 1082bc8:	2080220e 	bge	r4,r2,1082c54 <write_cmd+0x1f4>
 1082bcc:	19000037 	ldwio	r4,0(r3)
 1082bd0:	2009d43a 	srai	r4,r4,16
 1082bd4:	20801f0e 	bge	r4,r2,1082c54 <write_cmd+0x1f4>
 1082bd8:	18c00037 	ldwio	r3,0(r3)
 1082bdc:	1807d43a 	srai	r3,r3,16
 1082be0:	18801c0e 	bge	r3,r2,1082c54 <write_cmd+0x1f4>
 1082be4:	010042b4 	movhi	r4,266
 1082be8:	21013e04 	addi	r4,r4,1272
 1082bec:	d80b883a 	mov	r5,sp
 1082bf0:	1088fa80 	call	1088fa8 <printf>
 1082bf4:	00bfffc4 	movi	r2,-1
 1082bf8:	dfc04017 	ldw	ra,256(sp)
 1082bfc:	dec04104 	addi	sp,sp,260
 1082c00:	f800283a 	ret
 1082c04:	20800003 	ldbu	r2,0(r4)
 1082c08:	10c03fcc 	andi	r3,r2,255
 1082c0c:	18c0201c 	xori	r3,r3,128
 1082c10:	18ffe004 	addi	r3,r3,-128
 1082c14:	18002126 	beq	r3,zero,1082c9c <write_cmd+0x23c>
 1082c18:	2007883a 	mov	r3,r4
 1082c1c:	000f883a 	mov	r7,zero
 1082c20:	18c00044 	addi	r3,r3,1
 1082c24:	11cef03a 	xor	r7,r2,r7
 1082c28:	18800003 	ldbu	r2,0(r3)
 1082c2c:	11003fcc 	andi	r4,r2,255
 1082c30:	2100201c 	xori	r4,r4,128
 1082c34:	213fe004 	addi	r4,r4,-128
 1082c38:	203ff91e 	bne	r4,zero,1082c20 <write_cmd+0x1c0>
 1082c3c:	39c03fcc 	andi	r7,r7,255
 1082c40:	014042b4 	movhi	r5,266
 1082c44:	29413804 	addi	r5,r5,1248
 1082c48:	d809883a 	mov	r4,sp
 1082c4c:	10890f80 	call	10890f8 <sprintf>
 1082c50:	003fae06 	br	1082b0c <write_cmd+0xac>
 1082c54:	d8800007 	ldb	r2,0(sp)
 1082c58:	d807883a 	mov	r3,sp
 1082c5c:	10000626 	beq	r2,zero,1082c78 <write_cmd+0x218>
 1082c60:	01004434 	movhi	r4,272
 1082c64:	21042804 	addi	r4,r4,4256
 1082c68:	18c00044 	addi	r3,r3,1
 1082c6c:	20800035 	stwio	r2,0(r4)
 1082c70:	18800007 	ldb	r2,0(r3)
 1082c74:	103ffc1e 	bne	r2,zero,1082c68 <write_cmd+0x208>
 1082c78:	0005883a 	mov	r2,zero
 1082c7c:	dfc04017 	ldw	ra,256(sp)
 1082c80:	dec04104 	addi	sp,sp,260
 1082c84:	f800283a 	ret
 1082c88:	014042b4 	movhi	r5,266
 1082c8c:	29413604 	addi	r5,r5,1240
 1082c90:	d809883a 	mov	r4,sp
 1082c94:	10890f80 	call	10890f8 <sprintf>
 1082c98:	003f9c06 	br	1082b0c <write_cmd+0xac>
 1082c9c:	000f883a 	mov	r7,zero
 1082ca0:	003fe706 	br	1082c40 <write_cmd+0x1e0>

01082ca4 <rs232_shell>:
 1082ca4:	deffc004 	addi	sp,sp,-256
 1082ca8:	dfc03f15 	stw	ra,252(sp)
 1082cac:	00000706 	br	1082ccc <rs232_shell+0x28>
 1082cb0:	d809883a 	mov	r4,sp
 1082cb4:	10894380 	call	1089438 <strlen>
 1082cb8:	d8ffffc4 	addi	r3,sp,-1
 1082cbc:	1885883a 	add	r2,r3,r2
 1082cc0:	d809883a 	mov	r4,sp
 1082cc4:	10000005 	stb	zero,0(r2)
 1082cc8:	1082a600 	call	1082a60 <write_cmd>
 1082ccc:	d809883a 	mov	r4,sp
 1082cd0:	01403e84 	movi	r5,250
 1082cd4:	1082ffc0 	call	1082ffc <alt_getline>
 1082cd8:	010042b4 	movhi	r4,266
 1082cdc:	21014804 	addi	r4,r4,1312
 1082ce0:	d80b883a 	mov	r5,sp
 1082ce4:	10893940 	call	1089394 <strcmp>
 1082ce8:	103ff11e 	bne	r2,zero,1082cb0 <rs232_shell+0xc>
 1082cec:	dfc03f17 	ldw	ra,252(sp)
 1082cf0:	dec04004 	addi	sp,sp,256
 1082cf4:	f800283a 	ret

01082cf8 <write_str>:
 1082cf8:	defffe04 	addi	sp,sp,-8
 1082cfc:	dc000015 	stw	r16,0(sp)
 1082d00:	dfc00115 	stw	ra,4(sp)
 1082d04:	2021883a 	mov	r16,r4
 1082d08:	10894380 	call	1089438 <strlen>
 1082d0c:	00c04434 	movhi	r3,272
 1082d10:	18c42904 	addi	r3,r3,4260
 1082d14:	19000037 	ldwio	r4,0(r3)
 1082d18:	2009d43a 	srai	r4,r4,16
 1082d1c:	2080380e 	bge	r4,r2,1082e00 <write_str+0x108>
 1082d20:	19000037 	ldwio	r4,0(r3)
 1082d24:	2009d43a 	srai	r4,r4,16
 1082d28:	2080350e 	bge	r4,r2,1082e00 <write_str+0x108>
 1082d2c:	19000037 	ldwio	r4,0(r3)
 1082d30:	2009d43a 	srai	r4,r4,16
 1082d34:	2080320e 	bge	r4,r2,1082e00 <write_str+0x108>
 1082d38:	19000037 	ldwio	r4,0(r3)
 1082d3c:	2009d43a 	srai	r4,r4,16
 1082d40:	20802f0e 	bge	r4,r2,1082e00 <write_str+0x108>
 1082d44:	19000037 	ldwio	r4,0(r3)
 1082d48:	2009d43a 	srai	r4,r4,16
 1082d4c:	20802c0e 	bge	r4,r2,1082e00 <write_str+0x108>
 1082d50:	19000037 	ldwio	r4,0(r3)
 1082d54:	2009d43a 	srai	r4,r4,16
 1082d58:	2080290e 	bge	r4,r2,1082e00 <write_str+0x108>
 1082d5c:	19000037 	ldwio	r4,0(r3)
 1082d60:	2009d43a 	srai	r4,r4,16
 1082d64:	2080260e 	bge	r4,r2,1082e00 <write_str+0x108>
 1082d68:	19000037 	ldwio	r4,0(r3)
 1082d6c:	2009d43a 	srai	r4,r4,16
 1082d70:	2080230e 	bge	r4,r2,1082e00 <write_str+0x108>
 1082d74:	19000037 	ldwio	r4,0(r3)
 1082d78:	2009d43a 	srai	r4,r4,16
 1082d7c:	2080200e 	bge	r4,r2,1082e00 <write_str+0x108>
 1082d80:	18c00037 	ldwio	r3,0(r3)
 1082d84:	1807d43a 	srai	r3,r3,16
 1082d88:	18801d0e 	bge	r3,r2,1082e00 <write_str+0x108>
 1082d8c:	00c04434 	movhi	r3,272
 1082d90:	18c42904 	addi	r3,r3,4260
 1082d94:	19000037 	ldwio	r4,0(r3)
 1082d98:	2009d43a 	srai	r4,r4,16
 1082d9c:	2080180e 	bge	r4,r2,1082e00 <write_str+0x108>
 1082da0:	19000037 	ldwio	r4,0(r3)
 1082da4:	2009d43a 	srai	r4,r4,16
 1082da8:	2080150e 	bge	r4,r2,1082e00 <write_str+0x108>
 1082dac:	19000037 	ldwio	r4,0(r3)
 1082db0:	2009d43a 	srai	r4,r4,16
 1082db4:	2080120e 	bge	r4,r2,1082e00 <write_str+0x108>
 1082db8:	19000037 	ldwio	r4,0(r3)
 1082dbc:	2009d43a 	srai	r4,r4,16
 1082dc0:	20800f0e 	bge	r4,r2,1082e00 <write_str+0x108>
 1082dc4:	19000037 	ldwio	r4,0(r3)
 1082dc8:	2009d43a 	srai	r4,r4,16
 1082dcc:	20800c0e 	bge	r4,r2,1082e00 <write_str+0x108>
 1082dd0:	18c00037 	ldwio	r3,0(r3)
 1082dd4:	1807d43a 	srai	r3,r3,16
 1082dd8:	1880090e 	bge	r3,r2,1082e00 <write_str+0x108>
 1082ddc:	010042b4 	movhi	r4,266
 1082de0:	21013e04 	addi	r4,r4,1272
 1082de4:	800b883a 	mov	r5,r16
 1082de8:	1088fa80 	call	1088fa8 <printf>
 1082dec:	00bfffc4 	movi	r2,-1
 1082df0:	dfc00117 	ldw	ra,4(sp)
 1082df4:	dc000017 	ldw	r16,0(sp)
 1082df8:	dec00204 	addi	sp,sp,8
 1082dfc:	f800283a 	ret
 1082e00:	80800007 	ldb	r2,0(r16)
 1082e04:	10000626 	beq	r2,zero,1082e20 <write_str+0x128>
 1082e08:	00c04434 	movhi	r3,272
 1082e0c:	18c42804 	addi	r3,r3,4256
 1082e10:	84000044 	addi	r16,r16,1
 1082e14:	18800035 	stwio	r2,0(r3)
 1082e18:	80800007 	ldb	r2,0(r16)
 1082e1c:	103ffc1e 	bne	r2,zero,1082e10 <write_str+0x118>
 1082e20:	0005883a 	mov	r2,zero
 1082e24:	dfc00117 	ldw	ra,4(sp)
 1082e28:	dc000017 	ldw	r16,0(sp)
 1082e2c:	dec00204 	addi	sp,sp,8
 1082e30:	f800283a 	ret

01082e34 <init>:
 1082e34:	deffff04 	addi	sp,sp,-4
 1082e38:	00804434 	movhi	r2,272
 1082e3c:	dfc00015 	stw	ra,0(sp)
 1082e40:	10842d04 	addi	r2,r2,4276
 1082e44:	10000035 	stwio	zero,0(r2)
 1082e48:	d1200217 	ldw	r4,-32760(gp)
 1082e4c:	00801cc4 	movi	r2,115
 1082e50:	d0e76904 	addi	r3,gp,-25180
 1082e54:	2008927a 	slli	r4,r4,9
 1082e58:	d0a76905 	stb	r2,-25180(gp)
 1082e5c:	18800045 	stb	r2,1(r3)
 1082e60:	18800085 	stb	r2,2(r3)
 1082e64:	188000c5 	stb	r2,3(r3)
 1082e68:	18800105 	stb	r2,4(r3)
 1082e6c:	18800145 	stb	r2,5(r3)
 1082e70:	18800185 	stb	r2,6(r3)
 1082e74:	188001c5 	stb	r2,7(r3)
 1082e78:	20005016 	blt	r4,zero,1082fbc <init+0x188>
 1082e7c:	2009d2ba 	srai	r4,r4,10
 1082e80:	00804434 	movhi	r2,272
 1082e84:	10840804 	addi	r2,r2,4128
 1082e88:	11000035 	stwio	r4,0(r2)
 1082e8c:	d0e00217 	ldw	r3,-32760(gp)
 1082e90:	008042b4 	movhi	r2,266
 1082e94:	10938804 	addi	r2,r2,20000
 1082e98:	1806927a 	slli	r3,r3,9
 1082e9c:	01008004 	movi	r4,512
 1082ea0:	11000015 	stw	r4,0(r2)
 1082ea4:	18005316 	blt	r3,zero,1082ff4 <init+0x1c0>
 1082ea8:	1807d2ba 	srai	r3,r3,10
 1082eac:	01004434 	movhi	r4,272
 1082eb0:	21040904 	addi	r4,r4,4132
 1082eb4:	20c00035 	stwio	r3,0(r4)
 1082eb8:	00c08004 	movi	r3,512
 1082ebc:	10c00115 	stw	r3,4(r2)
 1082ec0:	d0e00217 	ldw	r3,-32760(gp)
 1082ec4:	1806927a 	slli	r3,r3,9
 1082ec8:	18004816 	blt	r3,zero,1082fec <init+0x1b8>
 1082ecc:	1807d2ba 	srai	r3,r3,10
 1082ed0:	01004434 	movhi	r4,272
 1082ed4:	21040a04 	addi	r4,r4,4136
 1082ed8:	20c00035 	stwio	r3,0(r4)
 1082edc:	00c08004 	movi	r3,512
 1082ee0:	10c00215 	stw	r3,8(r2)
 1082ee4:	d0e00217 	ldw	r3,-32760(gp)
 1082ee8:	1806927a 	slli	r3,r3,9
 1082eec:	18003d16 	blt	r3,zero,1082fe4 <init+0x1b0>
 1082ef0:	1807d2ba 	srai	r3,r3,10
 1082ef4:	01004434 	movhi	r4,272
 1082ef8:	21040b04 	addi	r4,r4,4140
 1082efc:	20c00035 	stwio	r3,0(r4)
 1082f00:	00c08004 	movi	r3,512
 1082f04:	10c00315 	stw	r3,12(r2)
 1082f08:	d0e00217 	ldw	r3,-32760(gp)
 1082f0c:	1806927a 	slli	r3,r3,9
 1082f10:	18003216 	blt	r3,zero,1082fdc <init+0x1a8>
 1082f14:	1807d2ba 	srai	r3,r3,10
 1082f18:	01004434 	movhi	r4,272
 1082f1c:	21040c04 	addi	r4,r4,4144
 1082f20:	20c00035 	stwio	r3,0(r4)
 1082f24:	00c08004 	movi	r3,512
 1082f28:	10c00415 	stw	r3,16(r2)
 1082f2c:	d0e00217 	ldw	r3,-32760(gp)
 1082f30:	1806927a 	slli	r3,r3,9
 1082f34:	18002716 	blt	r3,zero,1082fd4 <init+0x1a0>
 1082f38:	1807d2ba 	srai	r3,r3,10
 1082f3c:	01004434 	movhi	r4,272
 1082f40:	21040d04 	addi	r4,r4,4148
 1082f44:	20c00035 	stwio	r3,0(r4)
 1082f48:	00c08004 	movi	r3,512
 1082f4c:	10c00515 	stw	r3,20(r2)
 1082f50:	d0e00217 	ldw	r3,-32760(gp)
 1082f54:	1806927a 	slli	r3,r3,9
 1082f58:	18001c16 	blt	r3,zero,1082fcc <init+0x198>
 1082f5c:	1807d2ba 	srai	r3,r3,10
 1082f60:	01004434 	movhi	r4,272
 1082f64:	21040e04 	addi	r4,r4,4152
 1082f68:	20c00035 	stwio	r3,0(r4)
 1082f6c:	00c08004 	movi	r3,512
 1082f70:	10c00615 	stw	r3,24(r2)
 1082f74:	d0e00217 	ldw	r3,-32760(gp)
 1082f78:	1806927a 	slli	r3,r3,9
 1082f7c:	18001116 	blt	r3,zero,1082fc4 <init+0x190>
 1082f80:	1807d2ba 	srai	r3,r3,10
 1082f84:	01004434 	movhi	r4,272
 1082f88:	21040f04 	addi	r4,r4,4156
 1082f8c:	20c00035 	stwio	r3,0(r4)
 1082f90:	00c08004 	movi	r3,512
 1082f94:	10c00715 	stw	r3,28(r2)
 1082f98:	108051c0 	call	108051c <pid_init>
 1082f9c:	10829480 	call	1082948 <rs232_init>
 1082fa0:	108162c0 	call	108162c <init_interrupts>
 1082fa4:	0009883a 	mov	r4,zero
 1082fa8:	01400104 	movi	r5,4
 1082fac:	01900004 	movi	r6,16384
 1082fb0:	dfc00017 	ldw	ra,0(sp)
 1082fb4:	dec00104 	addi	sp,sp,4
 1082fb8:	109c8dc1 	jmpi	109c8dc <fcntl>
 1082fbc:	2100ffc4 	addi	r4,r4,1023
 1082fc0:	003fae06 	br	1082e7c <init+0x48>
 1082fc4:	18c0ffc4 	addi	r3,r3,1023
 1082fc8:	003fed06 	br	1082f80 <init+0x14c>
 1082fcc:	18c0ffc4 	addi	r3,r3,1023
 1082fd0:	003fe206 	br	1082f5c <init+0x128>
 1082fd4:	18c0ffc4 	addi	r3,r3,1023
 1082fd8:	003fd706 	br	1082f38 <init+0x104>
 1082fdc:	18c0ffc4 	addi	r3,r3,1023
 1082fe0:	003fcc06 	br	1082f14 <init+0xe0>
 1082fe4:	18c0ffc4 	addi	r3,r3,1023
 1082fe8:	003fc106 	br	1082ef0 <init+0xbc>
 1082fec:	18c0ffc4 	addi	r3,r3,1023
 1082ff0:	003fb606 	br	1082ecc <init+0x98>
 1082ff4:	18c0ffc4 	addi	r3,r3,1023
 1082ff8:	003fab06 	br	1082ea8 <init+0x74>

01082ffc <alt_getline>:
 1082ffc:	defff704 	addi	sp,sp,-36
 1083000:	dcc00315 	stw	r19,12(sp)
 1083004:	04c042b4 	movhi	r19,266
 1083008:	ddc00715 	stw	r23,28(sp)
 108300c:	dd800615 	stw	r22,24(sp)
 1083010:	dd400515 	stw	r21,20(sp)
 1083014:	dc800215 	stw	r18,8(sp)
 1083018:	dfc00815 	stw	ra,32(sp)
 108301c:	dd000415 	stw	r20,16(sp)
 1083020:	dc400115 	stw	r17,4(sp)
 1083024:	dc000015 	stw	r16,0(sp)
 1083028:	2025883a 	mov	r18,r4
 108302c:	216d883a 	add	r22,r4,r5
 1083030:	9cd1e204 	addi	r19,r19,18312
 1083034:	057fffc4 	movi	r21,-1
 1083038:	05c00284 	movi	r23,10
 108303c:	00000b06 	br	108306c <alt_getline+0x70>
 1083040:	109cb0c0 	call	109cb0c <alt_getchar>
 1083044:	14003fcc 	andi	r16,r2,255
 1083048:	8400201c 	xori	r16,r16,128
 108304c:	843fe004 	addi	r16,r16,-128
 1083050:	1023883a 	mov	r17,r2
 1083054:	85400726 	beq	r16,r21,1083074 <alt_getline+0x78>
 1083058:	8009883a 	mov	r4,r16
 108305c:	109d4040 	call	109d404 <alt_putchar>
 1083060:	a4400005 	stb	r17,0(r20)
 1083064:	94800044 	addi	r18,r18,1
 1083068:	85c00726 	beq	r16,r23,1083088 <alt_getline+0x8c>
 108306c:	9029883a 	mov	r20,r18
 1083070:	95800526 	beq	r18,r22,1083088 <alt_getline+0x8c>
 1083074:	98800017 	ldw	r2,0(r19)
 1083078:	103ff126 	beq	r2,zero,1083040 <alt_getline+0x44>
 108307c:	98000015 	stw	zero,0(r19)
 1083080:	1080cb40 	call	1080cb4 <calculate_pid>
 1083084:	003fee06 	br	1083040 <alt_getline+0x44>
 1083088:	90000005 	stb	zero,0(r18)
 108308c:	dfc00817 	ldw	ra,32(sp)
 1083090:	ddc00717 	ldw	r23,28(sp)
 1083094:	dd800617 	ldw	r22,24(sp)
 1083098:	dd400517 	ldw	r21,20(sp)
 108309c:	dd000417 	ldw	r20,16(sp)
 10830a0:	dcc00317 	ldw	r19,12(sp)
 10830a4:	dc800217 	ldw	r18,8(sp)
 10830a8:	dc400117 	ldw	r17,4(sp)
 10830ac:	dc000017 	ldw	r16,0(sp)
 10830b0:	dec00904 	addi	sp,sp,36
 10830b4:	f800283a 	ret

010830b8 <service_main_loop>:
 10830b8:	008042b4 	movhi	r2,266
 10830bc:	1091e204 	addi	r2,r2,18312
 10830c0:	10c00017 	ldw	r3,0(r2)
 10830c4:	1800011e 	bne	r3,zero,10830cc <service_main_loop+0x14>
 10830c8:	f800283a 	ret
 10830cc:	10000015 	stw	zero,0(r2)
 10830d0:	1080cb41 	jmpi	1080cb4 <calculate_pid>

010830d4 <read_hex>:
 10830d4:	20c00003 	ldbu	r3,0(r4)
 10830d8:	01400804 	movi	r5,32
 10830dc:	18803fcc 	andi	r2,r3,255
 10830e0:	1080201c 	xori	r2,r2,128
 10830e4:	10bfe004 	addi	r2,r2,-128
 10830e8:	1140071e 	bne	r2,r5,1083108 <read_hex+0x34>
 10830ec:	100b883a 	mov	r5,r2
 10830f0:	21000044 	addi	r4,r4,1
 10830f4:	20c00003 	ldbu	r3,0(r4)
 10830f8:	18803fcc 	andi	r2,r3,255
 10830fc:	1080201c 	xori	r2,r2,128
 1083100:	10bfe004 	addi	r2,r2,-128
 1083104:	117ffa26 	beq	r2,r5,10830f0 <read_hex+0x1c>
 1083108:	10002e26 	beq	r2,zero,10831c4 <read_hex+0xf0>
 108310c:	02800284 	movi	r10,10
 1083110:	12802c26 	beq	r2,r10,10831c4 <read_hex+0xf0>
 1083114:	027ff7c4 	movi	r9,-33
 1083118:	1a4a703a 	and	r5,r3,r9
 108311c:	29403fcc 	andi	r5,r5,255
 1083120:	2940201c 	xori	r5,r5,128
 1083124:	297fe004 	addi	r5,r5,-128
 1083128:	0011883a 	mov	r8,zero
 108312c:	28002026 	beq	r5,zero,10831b0 <read_hex+0xdc>
 1083130:	02c00244 	movi	r11,9
 1083134:	03000144 	movi	r12,5
 1083138:	00000c06 	br	108316c <read_hex+0x98>
 108313c:	41d0b03a 	or	r8,r8,r7
 1083140:	21000044 	addi	r4,r4,1
 1083144:	20c00003 	ldbu	r3,0(r4)
 1083148:	1a4a703a 	and	r5,r3,r9
 108314c:	29403fcc 	andi	r5,r5,255
 1083150:	2940201c 	xori	r5,r5,128
 1083154:	19803fcc 	andi	r6,r3,255
 1083158:	3180201c 	xori	r6,r6,128
 108315c:	297fe004 	addi	r5,r5,-128
 1083160:	31bfe004 	addi	r6,r6,-128
 1083164:	28001226 	beq	r5,zero,10831b0 <read_hex+0xdc>
 1083168:	32801126 	beq	r6,r10,10831b0 <read_hex+0xdc>
 108316c:	19c03fcc 	andi	r7,r3,255
 1083170:	197ff404 	addi	r5,r3,-48
 1083174:	39c0201c 	xori	r7,r7,128
 1083178:	19bfe7c4 	addi	r6,r3,-97
 108317c:	39ffe004 	addi	r7,r7,-128
 1083180:	29403fcc 	andi	r5,r5,255
 1083184:	39fff404 	addi	r7,r7,-48
 1083188:	31803fcc 	andi	r6,r6,255
 108318c:	4010913a 	slli	r8,r8,4
 1083190:	597fea2e 	bgeu	r11,r5,108313c <read_hex+0x68>
 1083194:	18c03fcc 	andi	r3,r3,255
 1083198:	18c0201c 	xori	r3,r3,128
 108319c:	18ffe004 	addi	r3,r3,-128
 10831a0:	18ffea44 	addi	r3,r3,-87
 10831a4:	61bfe636 	bltu	r12,r6,1083140 <read_hex+0x6c>
 10831a8:	40d0b03a 	or	r8,r8,r3
 10831ac:	003fe406 	br	1083140 <read_hex+0x6c>
 10831b0:	10800b60 	cmpeqi	r2,r2,45
 10831b4:	0087c83a 	sub	r3,zero,r2
 10831b8:	40d0f03a 	xor	r8,r8,r3
 10831bc:	4085883a 	add	r2,r8,r2
 10831c0:	f800283a 	ret
 10831c4:	00bfffc4 	movi	r2,-1
 10831c8:	f800283a 	ret

010831cc <print_int>:
 10831cc:	200b883a 	mov	r5,r4
 10831d0:	010042b4 	movhi	r4,266
 10831d4:	21014a04 	addi	r4,r4,1320
 10831d8:	1088fa81 	jmpi	1088fa8 <printf>

010831dc <set_pow>:
 10831dc:	00804434 	movhi	r2,272
 10831e0:	10842d04 	addi	r2,r2,4276
 10831e4:	11000035 	stwio	r4,0(r2)
 10831e8:	f800283a 	ret

010831ec <set_motor_dir>:
 10831ec:	00800044 	movi	r2,1
 10831f0:	28802826 	beq	r5,r2,1083294 <set_motor_dir+0xa8>
 10831f4:	28001c26 	beq	r5,zero,1083268 <set_motor_dir+0x7c>
 10831f8:	00c00084 	movi	r3,2
 10831fc:	28c00326 	beq	r5,r3,108320c <set_motor_dir+0x20>
 1083200:	00c000c4 	movi	r3,3
 1083204:	28c00d26 	beq	r5,r3,108323c <set_motor_dir+0x50>
 1083208:	f800283a 	ret
 108320c:	2105883a 	add	r2,r4,r4
 1083210:	00c04434 	movhi	r3,272
 1083214:	18c40004 	addi	r3,r3,4096
 1083218:	1085883a 	add	r2,r2,r2
 108321c:	10c5883a 	add	r2,r2,r3
 1083220:	00c000c4 	movi	r3,3
 1083224:	10c00035 	stwio	r3,0(r2)
 1083228:	d0a76904 	addi	r2,gp,-25180
 108322c:	1109883a 	add	r4,r2,r4
 1083230:	00801984 	movi	r2,102
 1083234:	20800005 	stb	r2,0(r4)
 1083238:	f800283a 	ret
 108323c:	2107883a 	add	r3,r4,r4
 1083240:	01404434 	movhi	r5,272
 1083244:	29440004 	addi	r5,r5,4096
 1083248:	18c7883a 	add	r3,r3,r3
 108324c:	1947883a 	add	r3,r3,r5
 1083250:	18800035 	stwio	r2,0(r3)
 1083254:	d0a76904 	addi	r2,gp,-25180
 1083258:	1109883a 	add	r4,r2,r4
 108325c:	00801c84 	movi	r2,114
 1083260:	20800005 	stb	r2,0(r4)
 1083264:	f800283a 	ret
 1083268:	2105883a 	add	r2,r4,r4
 108326c:	00c04434 	movhi	r3,272
 1083270:	18c40004 	addi	r3,r3,4096
 1083274:	1085883a 	add	r2,r2,r2
 1083278:	10c5883a 	add	r2,r2,r3
 108327c:	10000035 	stwio	zero,0(r2)
 1083280:	d0a76904 	addi	r2,gp,-25180
 1083284:	1109883a 	add	r4,r2,r4
 1083288:	00801cc4 	movi	r2,115
 108328c:	20800005 	stb	r2,0(r4)
 1083290:	f800283a 	ret
 1083294:	2105883a 	add	r2,r4,r4
 1083298:	00c04434 	movhi	r3,272
 108329c:	18c40004 	addi	r3,r3,4096
 10832a0:	1085883a 	add	r2,r2,r2
 10832a4:	10c5883a 	add	r2,r2,r3
 10832a8:	00c00084 	movi	r3,2
 10832ac:	10c00035 	stwio	r3,0(r2)
 10832b0:	d0a76904 	addi	r2,gp,-25180
 10832b4:	1109883a 	add	r4,r2,r4
 10832b8:	00801884 	movi	r2,98
 10832bc:	20800005 	stb	r2,0(r4)
 10832c0:	f800283a 	ret

010832c4 <get_motor_dir>:
 10832c4:	008001c4 	movi	r2,7
 10832c8:	1100022e 	bgeu	r2,r4,10832d4 <get_motor_dir+0x10>
 10832cc:	00800fc4 	movi	r2,63
 10832d0:	f800283a 	ret
 10832d4:	d0a76904 	addi	r2,gp,-25180
 10832d8:	1109883a 	add	r4,r2,r4
 10832dc:	20800003 	ldbu	r2,0(r4)
 10832e0:	f800283a 	ret

010832e4 <set_motor_duty_cycle>:
 10832e4:	defffb04 	addi	sp,sp,-20
 10832e8:	dc000015 	stw	r16,0(sp)
 10832ec:	2021883a 	mov	r16,r4
 10832f0:	2809883a 	mov	r4,r5
 10832f4:	dcc00315 	stw	r19,12(sp)
 10832f8:	dc800215 	stw	r18,8(sp)
 10832fc:	dc400115 	stw	r17,4(sp)
 1083300:	dfc00415 	stw	ra,16(sp)
 1083304:	2823883a 	mov	r17,r5
 1083308:	1088b900 	call	1088b90 <__floatsidf>
 108330c:	01a666b4 	movhi	r6,39322
 1083310:	01d022b4 	movhi	r7,16522
 1083314:	1009883a 	mov	r4,r2
 1083318:	180b883a 	mov	r5,r3
 108331c:	31a66684 	addi	r6,r6,-26214
 1083320:	39e66644 	addi	r7,r7,-26215
 1083324:	1027883a 	mov	r19,r2
 1083328:	1825883a 	mov	r18,r3
 108332c:	108780c0 	call	108780c <__gedf2>
 1083330:	0080180e 	bge	zero,r2,1083394 <set_motor_duty_cycle+0xb0>
 1083334:	0440ccc4 	movi	r17,819
 1083338:	d1600217 	ldw	r5,-32760(gp)
 108333c:	8421883a 	add	r16,r16,r16
 1083340:	00804434 	movhi	r2,272
 1083344:	8425883a 	add	r18,r16,r16
 1083348:	10840804 	addi	r2,r2,4128
 108334c:	8809883a 	mov	r4,r17
 1083350:	90a5883a 	add	r18,r18,r2
 1083354:	108607c0 	call	108607c <__mulsi3>
 1083358:	10001816 	blt	r2,zero,10833bc <set_motor_duty_cycle+0xd8>
 108335c:	1005d2ba 	srai	r2,r2,10
 1083360:	90800035 	stwio	r2,0(r18)
 1083364:	008042b4 	movhi	r2,266
 1083368:	10938804 	addi	r2,r2,20000
 108336c:	8421883a 	add	r16,r16,r16
 1083370:	1421883a 	add	r16,r2,r16
 1083374:	84400015 	stw	r17,0(r16)
 1083378:	dfc00417 	ldw	ra,16(sp)
 108337c:	dcc00317 	ldw	r19,12(sp)
 1083380:	dc800217 	ldw	r18,8(sp)
 1083384:	dc400117 	ldw	r17,4(sp)
 1083388:	dc000017 	ldw	r16,0(sp)
 108338c:	dec00504 	addi	sp,sp,20
 1083390:	f800283a 	ret
 1083394:	01a666b4 	movhi	r6,39322
 1083398:	01d01ab4 	movhi	r7,16490
 108339c:	31a66604 	addi	r6,r6,-26216
 10833a0:	39e66644 	addi	r7,r7,-26215
 10833a4:	9809883a 	mov	r4,r19
 10833a8:	900b883a 	mov	r5,r18
 10833ac:	10878ec0 	call	10878ec <__ledf2>
 10833b0:	103fe10e 	bge	r2,zero,1083338 <set_motor_duty_cycle+0x54>
 10833b4:	04403304 	movi	r17,204
 10833b8:	003fdf06 	br	1083338 <set_motor_duty_cycle+0x54>
 10833bc:	1080ffc4 	addi	r2,r2,1023
 10833c0:	003fe606 	br	108335c <set_motor_duty_cycle+0x78>

010833c4 <set_pwm_freq>:
 10833c4:	20b0d414 	ori	r2,r4,50000
 10833c8:	00c003c4 	movi	r3,15
 10833cc:	18800c36 	bltu	r3,r2,1083400 <set_pwm_freq+0x3c>
 10833d0:	01400334 	movhi	r5,12
 10833d4:	294d4004 	addi	r5,r5,13568
 10833d8:	2908b03a 	or	r4,r5,r4
 10833dc:	014042b4 	movhi	r5,266
 10833e0:	29439504 	addi	r5,r5,3668
 10833e4:	2149883a 	add	r4,r4,r5
 10833e8:	20800003 	ldbu	r2,0(r4)
 10833ec:	00c04434 	movhi	r3,272
 10833f0:	18c41004 	addi	r3,r3,4160
 10833f4:	d0a00215 	stw	r2,-32760(gp)
 10833f8:	18800035 	stwio	r2,0(r3)
 10833fc:	f800283a 	ret
 1083400:	deffff04 	addi	sp,sp,-4
 1083404:	200b883a 	mov	r5,r4
 1083408:	0130d414 	movui	r4,50000
 108340c:	dfc00015 	stw	ra,0(sp)
 1083410:	1085fbc0 	call	1085fbc <__divsi3>
 1083414:	00c04434 	movhi	r3,272
 1083418:	d0a00215 	stw	r2,-32760(gp)
 108341c:	18c41004 	addi	r3,r3,4160
 1083420:	18800035 	stwio	r2,0(r3)
 1083424:	dfc00017 	ldw	ra,0(sp)
 1083428:	dec00104 	addi	sp,sp,4
 108342c:	f800283a 	ret

01083430 <get_motor_duty_cycle>:
 1083430:	008001c4 	movi	r2,7
 1083434:	11000736 	bltu	r2,r4,1083454 <get_motor_duty_cycle+0x24>
 1083438:	2109883a 	add	r4,r4,r4
 108343c:	008042b4 	movhi	r2,266
 1083440:	10938804 	addi	r2,r2,20000
 1083444:	2109883a 	add	r4,r4,r4
 1083448:	1109883a 	add	r4,r2,r4
 108344c:	20800017 	ldw	r2,0(r4)
 1083450:	f800283a 	ret
 1083454:	0005883a 	mov	r2,zero
 1083458:	f800283a 	ret

0108345c <get_pwm_freq>:
 108345c:	d1600217 	ldw	r5,-32760(gp)
 1083460:	00c003c4 	movi	r3,15
 1083464:	28b0d414 	ori	r2,r5,50000
 1083468:	18800836 	bltu	r3,r2,108348c <get_pwm_freq+0x30>
 108346c:	00800334 	movhi	r2,12
 1083470:	108d4004 	addi	r2,r2,13568
 1083474:	114ab03a 	or	r5,r2,r5
 1083478:	008042b4 	movhi	r2,266
 108347c:	10839504 	addi	r2,r2,3668
 1083480:	288b883a 	add	r5,r5,r2
 1083484:	28800003 	ldbu	r2,0(r5)
 1083488:	f800283a 	ret
 108348c:	deffff04 	addi	sp,sp,-4
 1083490:	0130d414 	movui	r4,50000
 1083494:	dfc00015 	stw	ra,0(sp)
 1083498:	1085fbc0 	call	1085fbc <__divsi3>
 108349c:	dfc00017 	ldw	ra,0(sp)
 10834a0:	dec00104 	addi	sp,sp,4
 10834a4:	f800283a 	ret

010834a8 <get_depth>:
 10834a8:	00804434 	movhi	r2,272
 10834ac:	10843104 	addi	r2,r2,4292
 10834b0:	10800037 	ldwio	r2,0(r2)
 10834b4:	f800283a 	ret

010834b8 <atan2>:
 10834b8:	1083be81 	jmpi	1083be8 <__ieee754_atan2>

010834bc <fmod>:
 10834bc:	deffef04 	addi	sp,sp,-68
 10834c0:	dc400a15 	stw	r17,40(sp)
 10834c4:	044042b4 	movhi	r17,266
 10834c8:	dd800f15 	stw	r22,60(sp)
 10834cc:	dd400e15 	stw	r21,56(sp)
 10834d0:	dd000d15 	stw	r20,52(sp)
 10834d4:	dcc00c15 	stw	r19,48(sp)
 10834d8:	dc800b15 	stw	r18,44(sp)
 10834dc:	dc000915 	stw	r16,36(sp)
 10834e0:	dfc01015 	stw	ra,64(sp)
 10834e4:	8c4a8304 	addi	r17,r17,10764
 10834e8:	202b883a 	mov	r21,r4
 10834ec:	2829883a 	mov	r20,r5
 10834f0:	3027883a 	mov	r19,r6
 10834f4:	3825883a 	mov	r18,r7
 10834f8:	1083ebc0 	call	1083ebc <__ieee754_fmod>
 10834fc:	8a000017 	ldw	r8,0(r17)
 1083500:	1021883a 	mov	r16,r2
 1083504:	00bfffc4 	movi	r2,-1
 1083508:	182d883a 	mov	r22,r3
 108350c:	40800426 	beq	r8,r2,1083520 <fmod+0x64>
 1083510:	9809883a 	mov	r4,r19
 1083514:	900b883a 	mov	r5,r18
 1083518:	1085afc0 	call	1085afc <__fpclassifyd>
 108351c:	10000c1e 	bne	r2,zero,1083550 <fmod+0x94>
 1083520:	8005883a 	mov	r2,r16
 1083524:	b007883a 	mov	r3,r22
 1083528:	dfc01017 	ldw	ra,64(sp)
 108352c:	dd800f17 	ldw	r22,60(sp)
 1083530:	dd400e17 	ldw	r21,56(sp)
 1083534:	dd000d17 	ldw	r20,52(sp)
 1083538:	dcc00c17 	ldw	r19,48(sp)
 108353c:	dc800b17 	ldw	r18,44(sp)
 1083540:	dc400a17 	ldw	r17,40(sp)
 1083544:	dc000917 	ldw	r16,36(sp)
 1083548:	dec01104 	addi	sp,sp,68
 108354c:	f800283a 	ret
 1083550:	a809883a 	mov	r4,r21
 1083554:	a00b883a 	mov	r5,r20
 1083558:	1085afc0 	call	1085afc <__fpclassifyd>
 108355c:	103ff026 	beq	r2,zero,1083520 <fmod+0x64>
 1083560:	9809883a 	mov	r4,r19
 1083564:	900b883a 	mov	r5,r18
 1083568:	000d883a 	mov	r6,zero
 108356c:	000f883a 	mov	r7,zero
 1083570:	10877880 	call	1087788 <__eqdf2>
 1083574:	103fea1e 	bne	r2,zero,1083520 <fmod+0x64>
 1083578:	00800044 	movi	r2,1
 108357c:	d8800015 	stw	r2,0(sp)
 1083580:	8c000017 	ldw	r16,0(r17)
 1083584:	008042b4 	movhi	r2,266
 1083588:	10814b04 	addi	r2,r2,1324
 108358c:	d8800115 	stw	r2,4(sp)
 1083590:	dd400215 	stw	r21,8(sp)
 1083594:	dd000315 	stw	r20,12(sp)
 1083598:	dcc00415 	stw	r19,16(sp)
 108359c:	dc800515 	stw	r18,20(sp)
 10835a0:	d8000815 	stw	zero,32(sp)
 10835a4:	80001126 	beq	r16,zero,10835ec <fmod+0x130>
 10835a8:	0009883a 	mov	r4,zero
 10835ac:	000b883a 	mov	r5,zero
 10835b0:	000d883a 	mov	r6,zero
 10835b4:	000f883a 	mov	r7,zero
 10835b8:	1086e080 	call	1086e08 <__divdf3>
 10835bc:	d8800615 	stw	r2,24(sp)
 10835c0:	d8c00715 	stw	r3,28(sp)
 10835c4:	00800084 	movi	r2,2
 10835c8:	80800a1e 	bne	r16,r2,10835f4 <fmod+0x138>
 10835cc:	1088f6c0 	call	1088f6c <__errno>
 10835d0:	00c00844 	movi	r3,33
 10835d4:	10c00015 	stw	r3,0(r2)
 10835d8:	d8800817 	ldw	r2,32(sp)
 10835dc:	1000091e 	bne	r2,zero,1083604 <fmod+0x148>
 10835e0:	d8800617 	ldw	r2,24(sp)
 10835e4:	d8c00717 	ldw	r3,28(sp)
 10835e8:	003fcf06 	br	1083528 <fmod+0x6c>
 10835ec:	dd400615 	stw	r21,24(sp)
 10835f0:	dd000715 	stw	r20,28(sp)
 10835f4:	d809883a 	mov	r4,sp
 10835f8:	1085b700 	call	1085b70 <matherr>
 10835fc:	103ff61e 	bne	r2,zero,10835d8 <fmod+0x11c>
 1083600:	003ff206 	br	10835cc <fmod+0x110>
 1083604:	1088f6c0 	call	1088f6c <__errno>
 1083608:	d8c00817 	ldw	r3,32(sp)
 108360c:	10c00015 	stw	r3,0(r2)
 1083610:	003ff306 	br	10835e0 <fmod+0x124>

01083614 <pow>:
 1083614:	deffee04 	addi	sp,sp,-72
 1083618:	dc800b15 	stw	r18,44(sp)
 108361c:	048042b4 	movhi	r18,266
 1083620:	ddc01015 	stw	r23,64(sp)
 1083624:	dd800f15 	stw	r22,60(sp)
 1083628:	dd400e15 	stw	r21,56(sp)
 108362c:	dd000d15 	stw	r20,52(sp)
 1083630:	dcc00c15 	stw	r19,48(sp)
 1083634:	dc400a15 	stw	r17,40(sp)
 1083638:	dc000915 	stw	r16,36(sp)
 108363c:	dfc01115 	stw	ra,68(sp)
 1083640:	948a8304 	addi	r18,r18,10764
 1083644:	202f883a 	mov	r23,r4
 1083648:	282d883a 	mov	r22,r5
 108364c:	302b883a 	mov	r21,r6
 1083650:	3829883a 	mov	r20,r7
 1083654:	10841ec0 	call	10841ec <__ieee754_pow>
 1083658:	1023883a 	mov	r17,r2
 108365c:	90800017 	ldw	r2,0(r18)
 1083660:	04ffffc4 	movi	r19,-1
 1083664:	1821883a 	mov	r16,r3
 1083668:	14c00426 	beq	r2,r19,108367c <pow+0x68>
 108366c:	a809883a 	mov	r4,r21
 1083670:	a00b883a 	mov	r5,r20
 1083674:	1085afc0 	call	1085afc <__fpclassifyd>
 1083678:	10000d1e 	bne	r2,zero,10836b0 <pow+0x9c>
 108367c:	8805883a 	mov	r2,r17
 1083680:	8007883a 	mov	r3,r16
 1083684:	dfc01117 	ldw	ra,68(sp)
 1083688:	ddc01017 	ldw	r23,64(sp)
 108368c:	dd800f17 	ldw	r22,60(sp)
 1083690:	dd400e17 	ldw	r21,56(sp)
 1083694:	dd000d17 	ldw	r20,52(sp)
 1083698:	dcc00c17 	ldw	r19,48(sp)
 108369c:	dc800b17 	ldw	r18,44(sp)
 10836a0:	dc400a17 	ldw	r17,40(sp)
 10836a4:	dc000917 	ldw	r16,36(sp)
 10836a8:	dec01204 	addi	sp,sp,72
 10836ac:	f800283a 	ret
 10836b0:	b809883a 	mov	r4,r23
 10836b4:	b00b883a 	mov	r5,r22
 10836b8:	1085afc0 	call	1085afc <__fpclassifyd>
 10836bc:	1000221e 	bne	r2,zero,1083748 <pow+0x134>
 10836c0:	a809883a 	mov	r4,r21
 10836c4:	a00b883a 	mov	r5,r20
 10836c8:	000d883a 	mov	r6,zero
 10836cc:	000f883a 	mov	r7,zero
 10836d0:	10877880 	call	1087788 <__eqdf2>
 10836d4:	103fe91e 	bne	r2,zero,108367c <pow+0x68>
 10836d8:	00c00044 	movi	r3,1
 10836dc:	d8c00015 	stw	r3,0(sp)
 10836e0:	00c042b4 	movhi	r3,266
 10836e4:	18c14d04 	addi	r3,r3,1332
 10836e8:	90800017 	ldw	r2,0(r18)
 10836ec:	d8c00115 	stw	r3,4(sp)
 10836f0:	00cffc34 	movhi	r3,16368
 10836f4:	d8000815 	stw	zero,32(sp)
 10836f8:	ddc00215 	stw	r23,8(sp)
 10836fc:	dd800315 	stw	r22,12(sp)
 1083700:	dd400415 	stw	r21,16(sp)
 1083704:	dd000515 	stw	r20,20(sp)
 1083708:	d8000615 	stw	zero,24(sp)
 108370c:	d8c00715 	stw	r3,28(sp)
 1083710:	14c00a26 	beq	r2,r19,108373c <pow+0x128>
 1083714:	00c00084 	movi	r3,2
 1083718:	10c00826 	beq	r2,r3,108373c <pow+0x128>
 108371c:	d809883a 	mov	r4,sp
 1083720:	1085b700 	call	1085b70 <matherr>
 1083724:	10006b26 	beq	r2,zero,10838d4 <pow+0x2c0>
 1083728:	d8800817 	ldw	r2,32(sp)
 108372c:	10000326 	beq	r2,zero,108373c <pow+0x128>
 1083730:	1088f6c0 	call	1088f6c <__errno>
 1083734:	d8c00817 	ldw	r3,32(sp)
 1083738:	10c00015 	stw	r3,0(r2)
 108373c:	d8800617 	ldw	r2,24(sp)
 1083740:	d8c00717 	ldw	r3,28(sp)
 1083744:	003fcf06 	br	1083684 <pow+0x70>
 1083748:	b809883a 	mov	r4,r23
 108374c:	b00b883a 	mov	r5,r22
 1083750:	000d883a 	mov	r6,zero
 1083754:	000f883a 	mov	r7,zero
 1083758:	10877880 	call	1087788 <__eqdf2>
 108375c:	1000171e 	bne	r2,zero,10837bc <pow+0x1a8>
 1083760:	a809883a 	mov	r4,r21
 1083764:	a00b883a 	mov	r5,r20
 1083768:	000d883a 	mov	r6,zero
 108376c:	000f883a 	mov	r7,zero
 1083770:	10877880 	call	1087788 <__eqdf2>
 1083774:	1000381e 	bne	r2,zero,1083858 <pow+0x244>
 1083778:	00c00044 	movi	r3,1
 108377c:	d8c00015 	stw	r3,0(sp)
 1083780:	90800017 	ldw	r2,0(r18)
 1083784:	00c042b4 	movhi	r3,266
 1083788:	18c14d04 	addi	r3,r3,1332
 108378c:	d8c00115 	stw	r3,4(sp)
 1083790:	d8000815 	stw	zero,32(sp)
 1083794:	ddc00215 	stw	r23,8(sp)
 1083798:	dd800315 	stw	r22,12(sp)
 108379c:	dd400415 	stw	r21,16(sp)
 10837a0:	dd000515 	stw	r20,20(sp)
 10837a4:	d8000615 	stw	zero,24(sp)
 10837a8:	d8000715 	stw	zero,28(sp)
 10837ac:	103fdb26 	beq	r2,zero,108371c <pow+0x108>
 10837b0:	008ffc34 	movhi	r2,16368
 10837b4:	d8800715 	stw	r2,28(sp)
 10837b8:	003fe006 	br	108373c <pow+0x128>
 10837bc:	8809883a 	mov	r4,r17
 10837c0:	800b883a 	mov	r5,r16
 10837c4:	1085ae00 	call	1085ae0 <finite>
 10837c8:	10004626 	beq	r2,zero,10838e4 <pow+0x2d0>
 10837cc:	8809883a 	mov	r4,r17
 10837d0:	800b883a 	mov	r5,r16
 10837d4:	000d883a 	mov	r6,zero
 10837d8:	000f883a 	mov	r7,zero
 10837dc:	10877880 	call	1087788 <__eqdf2>
 10837e0:	103fa61e 	bne	r2,zero,108367c <pow+0x68>
 10837e4:	b809883a 	mov	r4,r23
 10837e8:	b00b883a 	mov	r5,r22
 10837ec:	1085ae00 	call	1085ae0 <finite>
 10837f0:	103fa226 	beq	r2,zero,108367c <pow+0x68>
 10837f4:	a809883a 	mov	r4,r21
 10837f8:	a00b883a 	mov	r5,r20
 10837fc:	1085ae00 	call	1085ae0 <finite>
 1083800:	103f9e26 	beq	r2,zero,108367c <pow+0x68>
 1083804:	00800104 	movi	r2,4
 1083808:	d8800015 	stw	r2,0(sp)
 108380c:	90c00017 	ldw	r3,0(r18)
 1083810:	008042b4 	movhi	r2,266
 1083814:	10814d04 	addi	r2,r2,1332
 1083818:	d8800115 	stw	r2,4(sp)
 108381c:	d8000815 	stw	zero,32(sp)
 1083820:	ddc00215 	stw	r23,8(sp)
 1083824:	dd800315 	stw	r22,12(sp)
 1083828:	dd400415 	stw	r21,16(sp)
 108382c:	dd000515 	stw	r20,20(sp)
 1083830:	d8000615 	stw	zero,24(sp)
 1083834:	d8000715 	stw	zero,28(sp)
 1083838:	00800084 	movi	r2,2
 108383c:	18806126 	beq	r3,r2,10839c4 <pow+0x3b0>
 1083840:	d809883a 	mov	r4,sp
 1083844:	1085b700 	call	1085b70 <matherr>
 1083848:	10005e26 	beq	r2,zero,10839c4 <pow+0x3b0>
 108384c:	d8800817 	ldw	r2,32(sp)
 1083850:	103fba26 	beq	r2,zero,108373c <pow+0x128>
 1083854:	003fb606 	br	1083730 <pow+0x11c>
 1083858:	a809883a 	mov	r4,r21
 108385c:	a00b883a 	mov	r5,r20
 1083860:	1085ae00 	call	1085ae0 <finite>
 1083864:	103f8526 	beq	r2,zero,108367c <pow+0x68>
 1083868:	a809883a 	mov	r4,r21
 108386c:	a00b883a 	mov	r5,r20
 1083870:	000d883a 	mov	r6,zero
 1083874:	000f883a 	mov	r7,zero
 1083878:	10878ec0 	call	10878ec <__ledf2>
 108387c:	103f7f0e 	bge	r2,zero,108367c <pow+0x68>
 1083880:	00c00044 	movi	r3,1
 1083884:	d8c00015 	stw	r3,0(sp)
 1083888:	90800017 	ldw	r2,0(r18)
 108388c:	00c042b4 	movhi	r3,266
 1083890:	18c14d04 	addi	r3,r3,1332
 1083894:	d8c00115 	stw	r3,4(sp)
 1083898:	d8000815 	stw	zero,32(sp)
 108389c:	ddc00215 	stw	r23,8(sp)
 10838a0:	dd800315 	stw	r22,12(sp)
 10838a4:	dd400415 	stw	r21,16(sp)
 10838a8:	dd000515 	stw	r20,20(sp)
 10838ac:	d8000615 	stw	zero,24(sp)
 10838b0:	10002526 	beq	r2,zero,1083948 <pow+0x334>
 10838b4:	00fffc34 	movhi	r3,65520
 10838b8:	d8c00715 	stw	r3,28(sp)
 10838bc:	00c00084 	movi	r3,2
 10838c0:	10c0221e 	bne	r2,r3,108394c <pow+0x338>
 10838c4:	1088f6c0 	call	1088f6c <__errno>
 10838c8:	00c00844 	movi	r3,33
 10838cc:	10c00015 	stw	r3,0(r2)
 10838d0:	003fde06 	br	108384c <pow+0x238>
 10838d4:	1088f6c0 	call	1088f6c <__errno>
 10838d8:	00c00844 	movi	r3,33
 10838dc:	10c00015 	stw	r3,0(r2)
 10838e0:	003f9106 	br	1083728 <pow+0x114>
 10838e4:	b809883a 	mov	r4,r23
 10838e8:	b00b883a 	mov	r5,r22
 10838ec:	1085ae00 	call	1085ae0 <finite>
 10838f0:	103fb626 	beq	r2,zero,10837cc <pow+0x1b8>
 10838f4:	a809883a 	mov	r4,r21
 10838f8:	a00b883a 	mov	r5,r20
 10838fc:	1085ae00 	call	1085ae0 <finite>
 1083900:	103fb226 	beq	r2,zero,10837cc <pow+0x1b8>
 1083904:	8809883a 	mov	r4,r17
 1083908:	800b883a 	mov	r5,r16
 108390c:	1085afc0 	call	1085afc <__fpclassifyd>
 1083910:	1000121e 	bne	r2,zero,108395c <pow+0x348>
 1083914:	00800044 	movi	r2,1
 1083918:	d8800015 	stw	r2,0(sp)
 108391c:	94000017 	ldw	r16,0(r18)
 1083920:	008042b4 	movhi	r2,266
 1083924:	10814d04 	addi	r2,r2,1332
 1083928:	d8800115 	stw	r2,4(sp)
 108392c:	d8000815 	stw	zero,32(sp)
 1083930:	ddc00215 	stw	r23,8(sp)
 1083934:	dd800315 	stw	r22,12(sp)
 1083938:	dd400415 	stw	r21,16(sp)
 108393c:	dd000515 	stw	r20,20(sp)
 1083940:	8000241e 	bne	r16,zero,10839d4 <pow+0x3c0>
 1083944:	d8000615 	stw	zero,24(sp)
 1083948:	d8000715 	stw	zero,28(sp)
 108394c:	d809883a 	mov	r4,sp
 1083950:	1085b700 	call	1085b70 <matherr>
 1083954:	103fbd1e 	bne	r2,zero,108384c <pow+0x238>
 1083958:	003fda06 	br	10838c4 <pow+0x2b0>
 108395c:	00c000c4 	movi	r3,3
 1083960:	d8c00015 	stw	r3,0(sp)
 1083964:	90800017 	ldw	r2,0(r18)
 1083968:	00c042b4 	movhi	r3,266
 108396c:	18c14d04 	addi	r3,r3,1332
 1083970:	d8c00115 	stw	r3,4(sp)
 1083974:	d8000815 	stw	zero,32(sp)
 1083978:	ddc00215 	stw	r23,8(sp)
 108397c:	dd800315 	stw	r22,12(sp)
 1083980:	dd400415 	stw	r21,16(sp)
 1083984:	dd000515 	stw	r20,20(sp)
 1083988:	b809883a 	mov	r4,r23
 108398c:	b00b883a 	mov	r5,r22
 1083990:	000d883a 	mov	r6,zero
 1083994:	000f883a 	mov	r7,zero
 1083998:	1000181e 	bne	r2,zero,10839fc <pow+0x3e8>
 108399c:	00b80034 	movhi	r2,57344
 10839a0:	d8800615 	stw	r2,24(sp)
 10839a4:	0091fc34 	movhi	r2,18416
 10839a8:	10bfffc4 	addi	r2,r2,-1
 10839ac:	d8800715 	stw	r2,28(sp)
 10839b0:	10878ec0 	call	10878ec <__ledf2>
 10839b4:	10002a16 	blt	r2,zero,1083a60 <pow+0x44c>
 10839b8:	90c00017 	ldw	r3,0(r18)
 10839bc:	00800084 	movi	r2,2
 10839c0:	18bf9f1e 	bne	r3,r2,1083840 <pow+0x22c>
 10839c4:	1088f6c0 	call	1088f6c <__errno>
 10839c8:	00c00884 	movi	r3,34
 10839cc:	10c00015 	stw	r3,0(r2)
 10839d0:	003f9e06 	br	108384c <pow+0x238>
 10839d4:	0009883a 	mov	r4,zero
 10839d8:	000b883a 	mov	r5,zero
 10839dc:	000d883a 	mov	r6,zero
 10839e0:	000f883a 	mov	r7,zero
 10839e4:	1086e080 	call	1086e08 <__divdf3>
 10839e8:	d8800615 	stw	r2,24(sp)
 10839ec:	d8c00715 	stw	r3,28(sp)
 10839f0:	00800084 	movi	r2,2
 10839f4:	80bfb326 	beq	r16,r2,10838c4 <pow+0x2b0>
 10839f8:	003fd406 	br	108394c <pow+0x338>
 10839fc:	009ffc34 	movhi	r2,32752
 1083a00:	d8000615 	stw	zero,24(sp)
 1083a04:	d8800715 	stw	r2,28(sp)
 1083a08:	10878ec0 	call	10878ec <__ledf2>
 1083a0c:	103fea0e 	bge	r2,zero,10839b8 <pow+0x3a4>
 1083a10:	000d883a 	mov	r6,zero
 1083a14:	01cff834 	movhi	r7,16352
 1083a18:	a809883a 	mov	r4,r21
 1083a1c:	a00b883a 	mov	r5,r20
 1083a20:	10879cc0 	call	10879cc <__muldf3>
 1083a24:	1009883a 	mov	r4,r2
 1083a28:	180b883a 	mov	r5,r3
 1083a2c:	1023883a 	mov	r17,r2
 1083a30:	1821883a 	mov	r16,r3
 1083a34:	1085b840 	call	1085b84 <rint>
 1083a38:	1009883a 	mov	r4,r2
 1083a3c:	180b883a 	mov	r5,r3
 1083a40:	880d883a 	mov	r6,r17
 1083a44:	800f883a 	mov	r7,r16
 1083a48:	10877880 	call	1087788 <__eqdf2>
 1083a4c:	103fda26 	beq	r2,zero,10839b8 <pow+0x3a4>
 1083a50:	00bffc34 	movhi	r2,65520
 1083a54:	d8000615 	stw	zero,24(sp)
 1083a58:	d8800715 	stw	r2,28(sp)
 1083a5c:	003fd606 	br	10839b8 <pow+0x3a4>
 1083a60:	000d883a 	mov	r6,zero
 1083a64:	01cff834 	movhi	r7,16352
 1083a68:	a809883a 	mov	r4,r21
 1083a6c:	a00b883a 	mov	r5,r20
 1083a70:	10879cc0 	call	10879cc <__muldf3>
 1083a74:	1009883a 	mov	r4,r2
 1083a78:	180b883a 	mov	r5,r3
 1083a7c:	1023883a 	mov	r17,r2
 1083a80:	1821883a 	mov	r16,r3
 1083a84:	1085b840 	call	1085b84 <rint>
 1083a88:	1009883a 	mov	r4,r2
 1083a8c:	180b883a 	mov	r5,r3
 1083a90:	880d883a 	mov	r6,r17
 1083a94:	800f883a 	mov	r7,r16
 1083a98:	10877880 	call	1087788 <__eqdf2>
 1083a9c:	103fc626 	beq	r2,zero,10839b8 <pow+0x3a4>
 1083aa0:	00b80034 	movhi	r2,57344
 1083aa4:	d8800615 	stw	r2,24(sp)
 1083aa8:	00b1fc34 	movhi	r2,51184
 1083aac:	10bfffc4 	addi	r2,r2,-1
 1083ab0:	d8800715 	stw	r2,28(sp)
 1083ab4:	003fc006 	br	10839b8 <pow+0x3a4>

01083ab8 <sqrt>:
 1083ab8:	defff104 	addi	sp,sp,-60
 1083abc:	dd000d15 	stw	r20,52(sp)
 1083ac0:	050042b4 	movhi	r20,266
 1083ac4:	dcc00c15 	stw	r19,48(sp)
 1083ac8:	dc800b15 	stw	r18,44(sp)
 1083acc:	dc400a15 	stw	r17,40(sp)
 1083ad0:	dc000915 	stw	r16,36(sp)
 1083ad4:	dfc00e15 	stw	ra,56(sp)
 1083ad8:	a50a8304 	addi	r20,r20,10764
 1083adc:	2027883a 	mov	r19,r4
 1083ae0:	2825883a 	mov	r18,r5
 1083ae4:	10852b80 	call	10852b8 <__ieee754_sqrt>
 1083ae8:	1821883a 	mov	r16,r3
 1083aec:	a0c00017 	ldw	r3,0(r20)
 1083af0:	1023883a 	mov	r17,r2
 1083af4:	00bfffc4 	movi	r2,-1
 1083af8:	18800a26 	beq	r3,r2,1083b24 <sqrt+0x6c>
 1083afc:	9809883a 	mov	r4,r19
 1083b00:	900b883a 	mov	r5,r18
 1083b04:	1085afc0 	call	1085afc <__fpclassifyd>
 1083b08:	10000626 	beq	r2,zero,1083b24 <sqrt+0x6c>
 1083b0c:	9809883a 	mov	r4,r19
 1083b10:	900b883a 	mov	r5,r18
 1083b14:	000d883a 	mov	r6,zero
 1083b18:	000f883a 	mov	r7,zero
 1083b1c:	10878ec0 	call	10878ec <__ledf2>
 1083b20:	10000a16 	blt	r2,zero,1083b4c <sqrt+0x94>
 1083b24:	8805883a 	mov	r2,r17
 1083b28:	8007883a 	mov	r3,r16
 1083b2c:	dfc00e17 	ldw	ra,56(sp)
 1083b30:	dd000d17 	ldw	r20,52(sp)
 1083b34:	dcc00c17 	ldw	r19,48(sp)
 1083b38:	dc800b17 	ldw	r18,44(sp)
 1083b3c:	dc400a17 	ldw	r17,40(sp)
 1083b40:	dc000917 	ldw	r16,36(sp)
 1083b44:	dec00f04 	addi	sp,sp,60
 1083b48:	f800283a 	ret
 1083b4c:	00800044 	movi	r2,1
 1083b50:	d8800015 	stw	r2,0(sp)
 1083b54:	a4000017 	ldw	r16,0(r20)
 1083b58:	008042b4 	movhi	r2,266
 1083b5c:	10814e04 	addi	r2,r2,1336
 1083b60:	d8800115 	stw	r2,4(sp)
 1083b64:	d8000815 	stw	zero,32(sp)
 1083b68:	dcc00415 	stw	r19,16(sp)
 1083b6c:	dc800515 	stw	r18,20(sp)
 1083b70:	dcc00215 	stw	r19,8(sp)
 1083b74:	dc800315 	stw	r18,12(sp)
 1083b78:	80000a1e 	bne	r16,zero,1083ba4 <sqrt+0xec>
 1083b7c:	d8000615 	stw	zero,24(sp)
 1083b80:	d8000715 	stw	zero,28(sp)
 1083b84:	d809883a 	mov	r4,sp
 1083b88:	1085b700 	call	1085b70 <matherr>
 1083b8c:	10000e26 	beq	r2,zero,1083bc8 <sqrt+0x110>
 1083b90:	d8800817 	ldw	r2,32(sp)
 1083b94:	1000101e 	bne	r2,zero,1083bd8 <sqrt+0x120>
 1083b98:	d8800617 	ldw	r2,24(sp)
 1083b9c:	d8c00717 	ldw	r3,28(sp)
 1083ba0:	003fe206 	br	1083b2c <sqrt+0x74>
 1083ba4:	0009883a 	mov	r4,zero
 1083ba8:	000b883a 	mov	r5,zero
 1083bac:	000d883a 	mov	r6,zero
 1083bb0:	000f883a 	mov	r7,zero
 1083bb4:	1086e080 	call	1086e08 <__divdf3>
 1083bb8:	d8800615 	stw	r2,24(sp)
 1083bbc:	d8c00715 	stw	r3,28(sp)
 1083bc0:	00800084 	movi	r2,2
 1083bc4:	80bfef1e 	bne	r16,r2,1083b84 <sqrt+0xcc>
 1083bc8:	1088f6c0 	call	1088f6c <__errno>
 1083bcc:	00c00844 	movi	r3,33
 1083bd0:	10c00015 	stw	r3,0(r2)
 1083bd4:	003fee06 	br	1083b90 <sqrt+0xd8>
 1083bd8:	1088f6c0 	call	1088f6c <__errno>
 1083bdc:	d8c00817 	ldw	r3,32(sp)
 1083be0:	10c00015 	stw	r3,0(r2)
 1083be4:	003fec06 	br	1083b98 <sqrt+0xe0>

01083be8 <__ieee754_atan2>:
 1083be8:	0185c83a 	sub	r2,zero,r6
 1083bec:	1184b03a 	or	r2,r2,r6
 1083bf0:	02a00034 	movhi	r10,32768
 1083bf4:	1004d7fa 	srli	r2,r2,31
 1083bf8:	52bfffc4 	addi	r10,r10,-1
 1083bfc:	defffe04 	addi	sp,sp,-8
 1083c00:	3a96703a 	and	r11,r7,r10
 1083c04:	dfc00115 	stw	ra,4(sp)
 1083c08:	dc000015 	stw	r16,0(sp)
 1083c0c:	5884b03a 	or	r2,r11,r2
 1083c10:	025ffc34 	movhi	r9,32752
 1083c14:	2011883a 	mov	r8,r4
 1083c18:	2807883a 	mov	r3,r5
 1083c1c:	48803836 	bltu	r9,r2,1083d00 <__ieee754_atan2+0x118>
 1083c20:	0105c83a 	sub	r2,zero,r4
 1083c24:	1104b03a 	or	r2,r2,r4
 1083c28:	1004d7fa 	srli	r2,r2,31
 1083c2c:	2a94703a 	and	r10,r5,r10
 1083c30:	5084b03a 	or	r2,r10,r2
 1083c34:	48803236 	bltu	r9,r2,1083d00 <__ieee754_atan2+0x118>
 1083c38:	00b00434 	movhi	r2,49168
 1083c3c:	3885883a 	add	r2,r7,r2
 1083c40:	1184b03a 	or	r2,r2,r6
 1083c44:	10004326 	beq	r2,zero,1083d54 <__ieee754_atan2+0x16c>
 1083c48:	3805d7ba 	srai	r2,r7,30
 1083c4c:	2820d7fa 	srli	r16,r5,31
 1083c50:	5108b03a 	or	r4,r10,r4
 1083c54:	1080008c 	andi	r2,r2,2
 1083c58:	1420b03a 	or	r16,r2,r16
 1083c5c:	20003126 	beq	r4,zero,1083d24 <__ieee754_atan2+0x13c>
 1083c60:	5984b03a 	or	r2,r11,r6
 1083c64:	10003526 	beq	r2,zero,1083d3c <__ieee754_atan2+0x154>
 1083c68:	009ffc34 	movhi	r2,32752
 1083c6c:	58804e26 	beq	r11,r2,1083da8 <__ieee754_atan2+0x1c0>
 1083c70:	009ffc34 	movhi	r2,32752
 1083c74:	50803126 	beq	r10,r2,1083d3c <__ieee754_atan2+0x154>
 1083c78:	52d5c83a 	sub	r10,r10,r11
 1083c7c:	5015d53a 	srai	r10,r10,20
 1083c80:	00800f04 	movi	r2,60
 1083c84:	12803e16 	blt	r2,r10,1083d80 <__ieee754_atan2+0x198>
 1083c88:	38006516 	blt	r7,zero,1083e20 <__ieee754_atan2+0x238>
 1083c8c:	4009883a 	mov	r4,r8
 1083c90:	180b883a 	mov	r5,r3
 1083c94:	1086e080 	call	1086e08 <__divdf3>
 1083c98:	1009883a 	mov	r4,r2
 1083c9c:	180b883a 	mov	r5,r3
 1083ca0:	1085acc0 	call	1085acc <fabs>
 1083ca4:	180b883a 	mov	r5,r3
 1083ca8:	1009883a 	mov	r4,r2
 1083cac:	108554c0 	call	108554c <atan>
 1083cb0:	180b883a 	mov	r5,r3
 1083cb4:	01000044 	movi	r4,1
 1083cb8:	81005726 	beq	r16,r4,1083e18 <__ieee754_atan2+0x230>
 1083cbc:	01000084 	movi	r4,2
 1083cc0:	81004726 	beq	r16,r4,1083de0 <__ieee754_atan2+0x1f8>
 1083cc4:	80004426 	beq	r16,zero,1083dd8 <__ieee754_atan2+0x1f0>
 1083cc8:	018cc534 	movhi	r6,13076
 1083ccc:	01cf28b4 	movhi	r7,15522
 1083cd0:	319701c4 	addi	r6,r6,23559
 1083cd4:	39e98984 	addi	r7,r7,-23002
 1083cd8:	1009883a 	mov	r4,r2
 1083cdc:	10882380 	call	1088238 <__subdf3>
 1083ce0:	01951134 	movhi	r6,21572
 1083ce4:	01d00274 	movhi	r7,16393
 1083ce8:	1009883a 	mov	r4,r2
 1083cec:	180b883a 	mov	r5,r3
 1083cf0:	318b4604 	addi	r6,r6,11544
 1083cf4:	39c87ec4 	addi	r7,r7,8699
 1083cf8:	10882380 	call	1088238 <__subdf3>
 1083cfc:	00000506 	br	1083d14 <__ieee754_atan2+0x12c>
 1083d00:	3009883a 	mov	r4,r6
 1083d04:	380b883a 	mov	r5,r7
 1083d08:	400d883a 	mov	r6,r8
 1083d0c:	180f883a 	mov	r7,r3
 1083d10:	108656c0 	call	108656c <__adddf3>
 1083d14:	dfc00117 	ldw	ra,4(sp)
 1083d18:	dc000017 	ldw	r16,0(sp)
 1083d1c:	dec00204 	addi	sp,sp,8
 1083d20:	f800283a 	ret
 1083d24:	00800084 	movi	r2,2
 1083d28:	80801a26 	beq	r16,r2,1083d94 <__ieee754_atan2+0x1ac>
 1083d2c:	14000d16 	blt	r2,r16,1083d64 <__ieee754_atan2+0x17c>
 1083d30:	803fcb16 	blt	r16,zero,1083c60 <__ieee754_atan2+0x78>
 1083d34:	4005883a 	mov	r2,r8
 1083d38:	003ff606 	br	1083d14 <__ieee754_atan2+0x12c>
 1083d3c:	00951134 	movhi	r2,21572
 1083d40:	108b4604 	addi	r2,r2,11544
 1083d44:	18002116 	blt	r3,zero,1083dcc <__ieee754_atan2+0x1e4>
 1083d48:	00cffe74 	movhi	r3,16377
 1083d4c:	18c87ec4 	addi	r3,r3,8699
 1083d50:	003ff006 	br	1083d14 <__ieee754_atan2+0x12c>
 1083d54:	dfc00117 	ldw	ra,4(sp)
 1083d58:	dc000017 	ldw	r16,0(sp)
 1083d5c:	dec00204 	addi	sp,sp,8
 1083d60:	108554c1 	jmpi	108554c <atan>
 1083d64:	008000c4 	movi	r2,3
 1083d68:	80bfbd1e 	bne	r16,r2,1083c60 <__ieee754_atan2+0x78>
 1083d6c:	00951134 	movhi	r2,21572
 1083d70:	00f00274 	movhi	r3,49161
 1083d74:	108b4604 	addi	r2,r2,11544
 1083d78:	18c87ec4 	addi	r3,r3,8699
 1083d7c:	003fe506 	br	1083d14 <__ieee754_atan2+0x12c>
 1083d80:	00951134 	movhi	r2,21572
 1083d84:	014ffe74 	movhi	r5,16377
 1083d88:	108b4604 	addi	r2,r2,11544
 1083d8c:	29487ec4 	addi	r5,r5,8699
 1083d90:	003fc806 	br	1083cb4 <__ieee754_atan2+0xcc>
 1083d94:	00951134 	movhi	r2,21572
 1083d98:	00d00274 	movhi	r3,16393
 1083d9c:	108b4604 	addi	r2,r2,11544
 1083da0:	18c87ec4 	addi	r3,r3,8699
 1083da4:	003fdb06 	br	1083d14 <__ieee754_atan2+0x12c>
 1083da8:	00800044 	movi	r2,1
 1083dac:	52c02126 	beq	r10,r11,1083e34 <__ieee754_atan2+0x24c>
 1083db0:	80802f26 	beq	r16,r2,1083e70 <__ieee754_atan2+0x288>
 1083db4:	14002a0e 	bge	r2,r16,1083e60 <__ieee754_atan2+0x278>
 1083db8:	00800084 	movi	r2,2
 1083dbc:	80bff526 	beq	r16,r2,1083d94 <__ieee754_atan2+0x1ac>
 1083dc0:	008000c4 	movi	r2,3
 1083dc4:	80bfe926 	beq	r16,r2,1083d6c <__ieee754_atan2+0x184>
 1083dc8:	003fa906 	br	1083c70 <__ieee754_atan2+0x88>
 1083dcc:	00effe74 	movhi	r3,49145
 1083dd0:	18c87ec4 	addi	r3,r3,8699
 1083dd4:	003fcf06 	br	1083d14 <__ieee754_atan2+0x12c>
 1083dd8:	2807883a 	mov	r3,r5
 1083ddc:	003fcd06 	br	1083d14 <__ieee754_atan2+0x12c>
 1083de0:	018cc534 	movhi	r6,13076
 1083de4:	01cf28b4 	movhi	r7,15522
 1083de8:	319701c4 	addi	r6,r6,23559
 1083dec:	39e98984 	addi	r7,r7,-23002
 1083df0:	1009883a 	mov	r4,r2
 1083df4:	10882380 	call	1088238 <__subdf3>
 1083df8:	01151134 	movhi	r4,21572
 1083dfc:	01500274 	movhi	r5,16393
 1083e00:	210b4604 	addi	r4,r4,11544
 1083e04:	29487ec4 	addi	r5,r5,8699
 1083e08:	100d883a 	mov	r6,r2
 1083e0c:	180f883a 	mov	r7,r3
 1083e10:	10882380 	call	1088238 <__subdf3>
 1083e14:	003fbf06 	br	1083d14 <__ieee754_atan2+0x12c>
 1083e18:	28e0003c 	xorhi	r3,r5,32768
 1083e1c:	003fbd06 	br	1083d14 <__ieee754_atan2+0x12c>
 1083e20:	00bff104 	movi	r2,-60
 1083e24:	50bf990e 	bge	r10,r2,1083c8c <__ieee754_atan2+0xa4>
 1083e28:	0005883a 	mov	r2,zero
 1083e2c:	000b883a 	mov	r5,zero
 1083e30:	003fa006 	br	1083cb4 <__ieee754_atan2+0xcc>
 1083e34:	80801c26 	beq	r16,r2,1083ea8 <__ieee754_atan2+0x2c0>
 1083e38:	1400100e 	bge	r2,r16,1083e7c <__ieee754_atan2+0x294>
 1083e3c:	00800084 	movi	r2,2
 1083e40:	80801426 	beq	r16,r2,1083e94 <__ieee754_atan2+0x2ac>
 1083e44:	008000c4 	movi	r2,3
 1083e48:	80bfbc1e 	bne	r16,r2,1083d3c <__ieee754_atan2+0x154>
 1083e4c:	009fccf4 	movhi	r2,32563
 1083e50:	00f000f4 	movhi	r3,49155
 1083e54:	10887484 	addi	r2,r2,8658
 1083e58:	18f65f04 	addi	r3,r3,-9860
 1083e5c:	003fad06 	br	1083d14 <__ieee754_atan2+0x12c>
 1083e60:	803f831e 	bne	r16,zero,1083c70 <__ieee754_atan2+0x88>
 1083e64:	0005883a 	mov	r2,zero
 1083e68:	0007883a 	mov	r3,zero
 1083e6c:	003fa906 	br	1083d14 <__ieee754_atan2+0x12c>
 1083e70:	0005883a 	mov	r2,zero
 1083e74:	00e00034 	movhi	r3,32768
 1083e78:	003fa606 	br	1083d14 <__ieee754_atan2+0x12c>
 1083e7c:	803faf1e 	bne	r16,zero,1083d3c <__ieee754_atan2+0x154>
 1083e80:	00951134 	movhi	r2,21572
 1083e84:	00cffa74 	movhi	r3,16361
 1083e88:	108b4604 	addi	r2,r2,11544
 1083e8c:	18c87ec4 	addi	r3,r3,8699
 1083e90:	003fa006 	br	1083d14 <__ieee754_atan2+0x12c>
 1083e94:	009fccf4 	movhi	r2,32563
 1083e98:	00d000f4 	movhi	r3,16387
 1083e9c:	10887484 	addi	r2,r2,8658
 1083ea0:	18f65f04 	addi	r3,r3,-9860
 1083ea4:	003f9b06 	br	1083d14 <__ieee754_atan2+0x12c>
 1083ea8:	00951134 	movhi	r2,21572
 1083eac:	00effa74 	movhi	r3,49129
 1083eb0:	108b4604 	addi	r2,r2,11544
 1083eb4:	18c87ec4 	addi	r3,r3,8699
 1083eb8:	003f9606 	br	1083d14 <__ieee754_atan2+0x12c>

01083ebc <__ieee754_fmod>:
 1083ebc:	00e00034 	movhi	r3,32768
 1083ec0:	18ffffc4 	addi	r3,r3,-1
 1083ec4:	deffff04 	addi	sp,sp,-4
 1083ec8:	38c6703a 	and	r3,r7,r3
 1083ecc:	dfc00015 	stw	ra,0(sp)
 1083ed0:	1984b03a 	or	r2,r3,r6
 1083ed4:	10001926 	beq	r2,zero,1083f3c <__ieee754_fmod+0x80>
 1083ed8:	2a60002c 	andhi	r9,r5,32768
 1083edc:	009ffc34 	movhi	r2,32752
 1083ee0:	4954f03a 	xor	r10,r9,r5
 1083ee4:	10bfffc4 	addi	r2,r2,-1
 1083ee8:	12801416 	blt	r2,r10,1083f3c <__ieee754_fmod+0x80>
 1083eec:	0185c83a 	sub	r2,zero,r6
 1083ef0:	1184b03a 	or	r2,r2,r6
 1083ef4:	1004d7fa 	srli	r2,r2,31
 1083ef8:	02dffc34 	movhi	r11,32752
 1083efc:	10c4b03a 	or	r2,r2,r3
 1083f00:	58800e36 	bltu	r11,r2,1083f3c <__ieee754_fmod+0x80>
 1083f04:	2011883a 	mov	r8,r4
 1083f08:	3019883a 	mov	r12,r6
 1083f0c:	1a801416 	blt	r3,r10,1083f60 <__ieee754_fmod+0xa4>
 1083f10:	50c01e16 	blt	r10,r3,1083f8c <__ieee754_fmod+0xd0>
 1083f14:	21801d36 	bltu	r4,r6,1083f8c <__ieee754_fmod+0xd0>
 1083f18:	2180111e 	bne	r4,r6,1083f60 <__ieee754_fmod+0xa4>
 1083f1c:	4806d7fa 	srli	r3,r9,31
 1083f20:	180490fa 	slli	r2,r3,3
 1083f24:	00c042b4 	movhi	r3,266
 1083f28:	18c15004 	addi	r3,r3,1344
 1083f2c:	1887883a 	add	r3,r3,r2
 1083f30:	18800017 	ldw	r2,0(r3)
 1083f34:	18c00117 	ldw	r3,4(r3)
 1083f38:	00000606 	br	1083f54 <__ieee754_fmod+0x98>
 1083f3c:	10879cc0 	call	10879cc <__muldf3>
 1083f40:	1009883a 	mov	r4,r2
 1083f44:	180b883a 	mov	r5,r3
 1083f48:	100d883a 	mov	r6,r2
 1083f4c:	180f883a 	mov	r7,r3
 1083f50:	1086e080 	call	1086e08 <__divdf3>
 1083f54:	dfc00017 	ldw	ra,0(sp)
 1083f58:	dec00104 	addi	sp,sp,4
 1083f5c:	f800283a 	ret
 1083f60:	00800434 	movhi	r2,16
 1083f64:	10bfffc4 	addi	r2,r2,-1
 1083f68:	12800b16 	blt	r2,r10,1083f98 <__ieee754_fmod+0xdc>
 1083f6c:	5000711e 	bne	r10,zero,1084134 <__ieee754_fmod+0x278>
 1083f70:	2005883a 	mov	r2,r4
 1083f74:	017efb44 	movi	r5,-1043
 1083f78:	0100090e 	bge	zero,r4,1083fa0 <__ieee754_fmod+0xe4>
 1083f7c:	1085883a 	add	r2,r2,r2
 1083f80:	297fffc4 	addi	r5,r5,-1
 1083f84:	00bffd16 	blt	zero,r2,1083f7c <__ieee754_fmod+0xc0>
 1083f88:	00000506 	br	1083fa0 <__ieee754_fmod+0xe4>
 1083f8c:	2005883a 	mov	r2,r4
 1083f90:	2807883a 	mov	r3,r5
 1083f94:	003fef06 	br	1083f54 <__ieee754_fmod+0x98>
 1083f98:	500bd53a 	srai	r5,r10,20
 1083f9c:	297f0044 	addi	r5,r5,-1023
 1083fa0:	00800434 	movhi	r2,16
 1083fa4:	10bfffc4 	addi	r2,r2,-1
 1083fa8:	10c00816 	blt	r2,r3,1083fcc <__ieee754_fmod+0x110>
 1083fac:	1800681e 	bne	r3,zero,1084150 <__ieee754_fmod+0x294>
 1083fb0:	3005883a 	mov	r2,r6
 1083fb4:	03befb44 	movi	r14,-1043
 1083fb8:	0180060e 	bge	zero,r6,1083fd4 <__ieee754_fmod+0x118>
 1083fbc:	1085883a 	add	r2,r2,r2
 1083fc0:	73bfffc4 	addi	r14,r14,-1
 1083fc4:	00bffd16 	blt	zero,r2,1083fbc <__ieee754_fmod+0x100>
 1083fc8:	00000206 	br	1083fd4 <__ieee754_fmod+0x118>
 1083fcc:	1805d53a 	srai	r2,r3,20
 1083fd0:	13bf0044 	addi	r14,r2,-1023
 1083fd4:	00bf0084 	movi	r2,-1022
 1083fd8:	28804b16 	blt	r5,r2,1084108 <__ieee754_fmod+0x24c>
 1083fdc:	00800434 	movhi	r2,16
 1083fe0:	10bfffc4 	addi	r2,r2,-1
 1083fe4:	5088703a 	and	r4,r10,r2
 1083fe8:	21000434 	orhi	r4,r4,16
 1083fec:	00bf0084 	movi	r2,-1022
 1083ff0:	70803c16 	blt	r14,r2,10840e4 <__ieee754_fmod+0x228>
 1083ff4:	00c00434 	movhi	r3,16
 1083ff8:	18ffffc4 	addi	r3,r3,-1
 1083ffc:	38ce703a 	and	r7,r7,r3
 1084000:	39800434 	orhi	r6,r7,16
 1084004:	2b8bc83a 	sub	r5,r5,r14
 1084008:	00000406 	br	108401c <__ieee754_fmod+0x160>
 108400c:	58001126 	beq	r11,zero,1084054 <__ieee754_fmod+0x198>
 1084010:	1091883a 	add	r8,r2,r2
 1084014:	6a89883a 	add	r4,r13,r10
 1084018:	297fffc4 	addi	r5,r5,-1
 108401c:	4305c83a 	sub	r2,r8,r12
 1084020:	1014d7fa 	srli	r10,r2,31
 1084024:	28001326 	beq	r5,zero,1084074 <__ieee754_fmod+0x1b8>
 1084028:	2187c83a 	sub	r3,r4,r6
 108402c:	4300012e 	bgeu	r8,r12,1084034 <__ieee754_fmod+0x178>
 1084030:	18ffffc4 	addi	r3,r3,-1
 1084034:	1896b03a 	or	r11,r3,r2
 1084038:	18db883a 	add	r13,r3,r3
 108403c:	183ff30e 	bge	r3,zero,108400c <__ieee754_fmod+0x150>
 1084040:	4004d7fa 	srli	r2,r8,31
 1084044:	2109883a 	add	r4,r4,r4
 1084048:	4211883a 	add	r8,r8,r8
 108404c:	2089883a 	add	r4,r4,r2
 1084050:	003ff106 	br	1084018 <__ieee754_fmod+0x15c>
 1084054:	4806d7fa 	srli	r3,r9,31
 1084058:	008042b4 	movhi	r2,266
 108405c:	10815004 	addi	r2,r2,1344
 1084060:	180690fa 	slli	r3,r3,3
 1084064:	10c7883a 	add	r3,r2,r3
 1084068:	18800017 	ldw	r2,0(r3)
 108406c:	18c00117 	ldw	r3,4(r3)
 1084070:	003fb806 	br	1083f54 <__ieee754_fmod+0x98>
 1084074:	218dc83a 	sub	r6,r4,r6
 1084078:	43002c36 	bltu	r8,r12,108412c <__ieee754_fmod+0x270>
 108407c:	30004c16 	blt	r6,zero,10841b0 <__ieee754_fmod+0x2f4>
 1084080:	4311c83a 	sub	r8,r8,r12
 1084084:	3204b03a 	or	r2,r6,r8
 1084088:	103ff226 	beq	r2,zero,1084054 <__ieee754_fmod+0x198>
 108408c:	00c00434 	movhi	r3,16
 1084090:	18ffffc4 	addi	r3,r3,-1
 1084094:	19800616 	blt	r3,r6,10840b0 <__ieee754_fmod+0x1f4>
 1084098:	4004d7fa 	srli	r2,r8,31
 108409c:	318d883a 	add	r6,r6,r6
 10840a0:	4211883a 	add	r8,r8,r8
 10840a4:	308d883a 	add	r6,r6,r2
 10840a8:	73bfffc4 	addi	r14,r14,-1
 10840ac:	19bffa0e 	bge	r3,r6,1084098 <__ieee754_fmod+0x1dc>
 10840b0:	00bf0084 	movi	r2,-1022
 10840b4:	7080360e 	bge	r14,r2,1084190 <__ieee754_fmod+0x2d4>
 10840b8:	1385c83a 	sub	r2,r2,r14
 10840bc:	00c00504 	movi	r3,20
 10840c0:	18803d16 	blt	r3,r2,10841b8 <__ieee754_fmod+0x2fc>
 10840c4:	71010784 	addi	r4,r14,1054
 10840c8:	4090d83a 	srl	r8,r8,r2
 10840cc:	3108983a 	sll	r4,r6,r4
 10840d0:	3087d83a 	sra	r3,r6,r2
 10840d4:	2208b03a 	or	r4,r4,r8
 10840d8:	2005883a 	mov	r2,r4
 10840dc:	1a46b03a 	or	r3,r3,r9
 10840e0:	003f9c06 	br	1083f54 <__ieee754_fmod+0x98>
 10840e4:	1385c83a 	sub	r2,r2,r14
 10840e8:	01c007c4 	movi	r7,31
 10840ec:	38802316 	blt	r7,r2,108417c <__ieee754_fmod+0x2c0>
 10840f0:	71c10784 	addi	r7,r14,1054
 10840f4:	1886983a 	sll	r3,r3,r2
 10840f8:	31ced83a 	srl	r7,r6,r7
 10840fc:	3098983a 	sll	r12,r6,r2
 1084100:	19ccb03a 	or	r6,r3,r7
 1084104:	003fbf06 	br	1084004 <__ieee754_fmod+0x148>
 1084108:	1145c83a 	sub	r2,r2,r5
 108410c:	020007c4 	movi	r8,31
 1084110:	40801516 	blt	r8,r2,1084168 <__ieee754_fmod+0x2ac>
 1084114:	2ac10784 	addi	r11,r5,1054
 1084118:	5094983a 	sll	r10,r10,r2
 108411c:	22d6d83a 	srl	r11,r4,r11
 1084120:	2090983a 	sll	r8,r4,r2
 1084124:	52c8b03a 	or	r4,r10,r11
 1084128:	003fb006 	br	1083fec <__ieee754_fmod+0x130>
 108412c:	31bfffc4 	addi	r6,r6,-1
 1084130:	003fd206 	br	108407c <__ieee754_fmod+0x1c0>
 1084134:	500492fa 	slli	r2,r10,11
 1084138:	017f0084 	movi	r5,-1022
 108413c:	00bf980e 	bge	zero,r2,1083fa0 <__ieee754_fmod+0xe4>
 1084140:	1085883a 	add	r2,r2,r2
 1084144:	297fffc4 	addi	r5,r5,-1
 1084148:	00bffd16 	blt	zero,r2,1084140 <__ieee754_fmod+0x284>
 108414c:	003f9406 	br	1083fa0 <__ieee754_fmod+0xe4>
 1084150:	180492fa 	slli	r2,r3,11
 1084154:	03bf0084 	movi	r14,-1022
 1084158:	1085883a 	add	r2,r2,r2
 108415c:	73bfffc4 	addi	r14,r14,-1
 1084160:	00bffd16 	blt	zero,r2,1084158 <__ieee754_fmod+0x29c>
 1084164:	003f9b06 	br	1083fd4 <__ieee754_fmod+0x118>
 1084168:	00bef884 	movi	r2,-1054
 108416c:	1145c83a 	sub	r2,r2,r5
 1084170:	2088983a 	sll	r4,r4,r2
 1084174:	0011883a 	mov	r8,zero
 1084178:	003f9c06 	br	1083fec <__ieee754_fmod+0x130>
 108417c:	00bef884 	movi	r2,-1054
 1084180:	1385c83a 	sub	r2,r2,r14
 1084184:	308c983a 	sll	r6,r6,r2
 1084188:	0019883a 	mov	r12,zero
 108418c:	003f9d06 	br	1084004 <__ieee754_fmod+0x148>
 1084190:	71c0ffc4 	addi	r7,r14,1023
 1084194:	380e953a 	slli	r7,r7,20
 1084198:	00fffc34 	movhi	r3,65520
 108419c:	30c7883a 	add	r3,r6,r3
 10841a0:	1a46b03a 	or	r3,r3,r9
 10841a4:	4005883a 	mov	r2,r8
 10841a8:	19c6b03a 	or	r3,r3,r7
 10841ac:	003f6906 	br	1083f54 <__ieee754_fmod+0x98>
 10841b0:	200d883a 	mov	r6,r4
 10841b4:	003fb306 	br	1084084 <__ieee754_fmod+0x1c8>
 10841b8:	00c007c4 	movi	r3,31
 10841bc:	18800616 	blt	r3,r2,10841d8 <__ieee754_fmod+0x31c>
 10841c0:	71c10784 	addi	r7,r14,1054
 10841c4:	4090d83a 	srl	r8,r8,r2
 10841c8:	31c4983a 	sll	r2,r6,r7
 10841cc:	4807883a 	mov	r3,r9
 10841d0:	1208b03a 	or	r4,r2,r8
 10841d4:	003fc006 	br	10840d8 <__ieee754_fmod+0x21c>
 10841d8:	00bef884 	movi	r2,-1054
 10841dc:	1385c83a 	sub	r2,r2,r14
 10841e0:	3089d83a 	sra	r4,r6,r2
 10841e4:	4807883a 	mov	r3,r9
 10841e8:	003fbb06 	br	10840d8 <__ieee754_fmod+0x21c>

010841ec <__ieee754_pow>:
 10841ec:	00a00034 	movhi	r2,32768
 10841f0:	deffec04 	addi	sp,sp,-80
 10841f4:	10bfffc4 	addi	r2,r2,-1
 10841f8:	dc400b15 	stw	r17,44(sp)
 10841fc:	38a2703a 	and	r17,r7,r2
 1084200:	dfc01315 	stw	ra,76(sp)
 1084204:	df001215 	stw	fp,72(sp)
 1084208:	ddc01115 	stw	r23,68(sp)
 108420c:	dd801015 	stw	r22,64(sp)
 1084210:	dd400f15 	stw	r21,60(sp)
 1084214:	dd000e15 	stw	r20,56(sp)
 1084218:	dcc00d15 	stw	r19,52(sp)
 108421c:	dc800c15 	stw	r18,48(sp)
 1084220:	dc000a15 	stw	r16,40(sp)
 1084224:	8986b03a 	or	r3,r17,r6
 1084228:	18002a26 	beq	r3,zero,10842d4 <__ieee754_pow+0xe8>
 108422c:	28a4703a 	and	r18,r5,r2
 1084230:	009ffc34 	movhi	r2,32752
 1084234:	14802316 	blt	r2,r18,10842c4 <__ieee754_pow+0xd8>
 1084238:	90802126 	beq	r18,r2,10842c0 <__ieee754_pow+0xd4>
 108423c:	14402116 	blt	r2,r17,10842c4 <__ieee754_pow+0xd8>
 1084240:	009ffc34 	movhi	r2,32752
 1084244:	88807326 	beq	r17,r2,1084414 <__ieee754_pow+0x228>
 1084248:	2827883a 	mov	r19,r5
 108424c:	2021883a 	mov	r16,r4
 1084250:	302b883a 	mov	r21,r6
 1084254:	382f883a 	mov	r23,r7
 1084258:	28007016 	blt	r5,zero,108441c <__ieee754_pow+0x230>
 108425c:	0039883a 	mov	fp,zero
 1084260:	a8003a1e 	bne	r21,zero,108434c <__ieee754_pow+0x160>
 1084264:	009ffc34 	movhi	r2,32752
 1084268:	88807e26 	beq	r17,r2,1084464 <__ieee754_pow+0x278>
 108426c:	008ffc34 	movhi	r2,16368
 1084270:	88805426 	beq	r17,r2,10843c4 <__ieee754_pow+0x1d8>
 1084274:	00900034 	movhi	r2,16384
 1084278:	b8834926 	beq	r23,r2,1084fa0 <__ieee754_pow+0xdb4>
 108427c:	008ff834 	movhi	r2,16352
 1084280:	b880321e 	bne	r23,r2,108434c <__ieee754_pow+0x160>
 1084284:	98003116 	blt	r19,zero,108434c <__ieee754_pow+0x160>
 1084288:	8009883a 	mov	r4,r16
 108428c:	980b883a 	mov	r5,r19
 1084290:	dfc01317 	ldw	ra,76(sp)
 1084294:	df001217 	ldw	fp,72(sp)
 1084298:	ddc01117 	ldw	r23,68(sp)
 108429c:	dd801017 	ldw	r22,64(sp)
 10842a0:	dd400f17 	ldw	r21,60(sp)
 10842a4:	dd000e17 	ldw	r20,56(sp)
 10842a8:	dcc00d17 	ldw	r19,52(sp)
 10842ac:	dc800c17 	ldw	r18,48(sp)
 10842b0:	dc400b17 	ldw	r17,44(sp)
 10842b4:	dc000a17 	ldw	r16,40(sp)
 10842b8:	dec01404 	addi	sp,sp,80
 10842bc:	10852b81 	jmpi	10852b8 <__ieee754_sqrt>
 10842c0:	20001226 	beq	r4,zero,108430c <__ieee754_pow+0x120>
 10842c4:	00b00434 	movhi	r2,49168
 10842c8:	9085883a 	add	r2,r18,r2
 10842cc:	1108b03a 	or	r4,r2,r4
 10842d0:	20000f1e 	bne	r4,zero,1084310 <__ieee754_pow+0x124>
 10842d4:	0005883a 	mov	r2,zero
 10842d8:	00cffc34 	movhi	r3,16368
 10842dc:	dfc01317 	ldw	ra,76(sp)
 10842e0:	df001217 	ldw	fp,72(sp)
 10842e4:	ddc01117 	ldw	r23,68(sp)
 10842e8:	dd801017 	ldw	r22,64(sp)
 10842ec:	dd400f17 	ldw	r21,60(sp)
 10842f0:	dd000e17 	ldw	r20,56(sp)
 10842f4:	dcc00d17 	ldw	r19,52(sp)
 10842f8:	dc800c17 	ldw	r18,48(sp)
 10842fc:	dc400b17 	ldw	r17,44(sp)
 1084300:	dc000a17 	ldw	r16,40(sp)
 1084304:	dec01404 	addi	sp,sp,80
 1084308:	f800283a 	ret
 108430c:	947fcc0e 	bge	r18,r17,1084240 <__ieee754_pow+0x54>
 1084310:	010042b4 	movhi	r4,266
 1084314:	2100f004 	addi	r4,r4,960
 1084318:	dfc01317 	ldw	ra,76(sp)
 108431c:	df001217 	ldw	fp,72(sp)
 1084320:	ddc01117 	ldw	r23,68(sp)
 1084324:	dd801017 	ldw	r22,64(sp)
 1084328:	dd400f17 	ldw	r21,60(sp)
 108432c:	dd000e17 	ldw	r20,56(sp)
 1084330:	dcc00d17 	ldw	r19,52(sp)
 1084334:	dc800c17 	ldw	r18,48(sp)
 1084338:	dc400b17 	ldw	r17,44(sp)
 108433c:	dc000a17 	ldw	r16,40(sp)
 1084340:	dec01404 	addi	sp,sp,80
 1084344:	1085b781 	jmpi	1085b78 <nan>
 1084348:	0039883a 	mov	fp,zero
 108434c:	8009883a 	mov	r4,r16
 1084350:	980b883a 	mov	r5,r19
 1084354:	1085acc0 	call	1085acc <fabs>
 1084358:	102d883a 	mov	r22,r2
 108435c:	80000f26 	beq	r16,zero,108439c <__ieee754_pow+0x1b0>
 1084360:	9816d7fa 	srli	r11,r19,31
 1084364:	5affffc4 	addi	r11,r11,-1
 1084368:	e2c4b03a 	or	r2,fp,r11
 108436c:	10004a26 	beq	r2,zero,1084498 <__ieee754_pow+0x2ac>
 1084370:	00907834 	movhi	r2,16864
 1084374:	1440530e 	bge	r2,r17,10844c4 <__ieee754_pow+0x2d8>
 1084378:	0090fc34 	movhi	r2,17392
 108437c:	14433e0e 	bge	r2,r17,1085078 <__ieee754_pow+0xe8c>
 1084380:	008ffc34 	movhi	r2,16368
 1084384:	10bfffc4 	addi	r2,r2,-1
 1084388:	14801916 	blt	r2,r18,10843f0 <__ieee754_pow+0x204>
 108438c:	b8001916 	blt	r23,zero,10843f4 <__ieee754_pow+0x208>
 1084390:	0005883a 	mov	r2,zero
 1084394:	0007883a 	mov	r3,zero
 1084398:	003fd006 	br	10842dc <__ieee754_pow+0xf0>
 108439c:	90000526 	beq	r18,zero,10843b4 <__ieee754_pow+0x1c8>
 10843a0:	00900034 	movhi	r2,16384
 10843a4:	10bfffc4 	addi	r2,r2,-1
 10843a8:	9884703a 	and	r2,r19,r2
 10843ac:	010ffc34 	movhi	r4,16368
 10843b0:	113feb1e 	bne	r2,r4,1084360 <__ieee754_pow+0x174>
 10843b4:	b8000716 	blt	r23,zero,10843d4 <__ieee754_pow+0x1e8>
 10843b8:	9802f216 	blt	r19,zero,1084f84 <__ieee754_pow+0xd98>
 10843bc:	b005883a 	mov	r2,r22
 10843c0:	003fc606 	br	10842dc <__ieee754_pow+0xf0>
 10843c4:	b8038816 	blt	r23,zero,10851e8 <__ieee754_pow+0xffc>
 10843c8:	8005883a 	mov	r2,r16
 10843cc:	9807883a 	mov	r3,r19
 10843d0:	003fc206 	br	10842dc <__ieee754_pow+0xf0>
 10843d4:	b00d883a 	mov	r6,r22
 10843d8:	0009883a 	mov	r4,zero
 10843dc:	014ffc34 	movhi	r5,16368
 10843e0:	180f883a 	mov	r7,r3
 10843e4:	1086e080 	call	1086e08 <__divdf3>
 10843e8:	102d883a 	mov	r22,r2
 10843ec:	003ff206 	br	10843b8 <__ieee754_pow+0x1cc>
 10843f0:	05ffe70e 	bge	zero,r23,1084390 <__ieee754_pow+0x1a4>
 10843f4:	01220034 	movhi	r4,34816
 10843f8:	015f8e34 	movhi	r5,32312
 10843fc:	211d6704 	addi	r4,r4,30108
 1084400:	29790f04 	addi	r5,r5,-7108
 1084404:	200d883a 	mov	r6,r4
 1084408:	280f883a 	mov	r7,r5
 108440c:	10879cc0 	call	10879cc <__muldf3>
 1084410:	003fb206 	br	10842dc <__ieee754_pow+0xf0>
 1084414:	303f8c26 	beq	r6,zero,1084248 <__ieee754_pow+0x5c>
 1084418:	003faa06 	br	10842c4 <__ieee754_pow+0xd8>
 108441c:	0090d034 	movhi	r2,17216
 1084420:	10bfffc4 	addi	r2,r2,-1
 1084424:	14401a16 	blt	r2,r17,1084490 <__ieee754_pow+0x2a4>
 1084428:	008ffc34 	movhi	r2,16368
 108442c:	10bfffc4 	addi	r2,r2,-1
 1084430:	147f8a0e 	bge	r2,r17,108425c <__ieee754_pow+0x70>
 1084434:	8809d53a 	srai	r4,r17,20
 1084438:	00c104c4 	movi	r3,1043
 108443c:	1903840e 	bge	r3,r4,1085250 <__ieee754_pow+0x1064>
 1084440:	00810cc4 	movi	r2,1075
 1084444:	1105c83a 	sub	r2,r2,r4
 1084448:	3086d83a 	srl	r3,r6,r2
 108444c:	1884983a 	sll	r2,r3,r2
 1084450:	11bf821e 	bne	r2,r6,108425c <__ieee754_pow+0x70>
 1084454:	18c0004c 	andi	r3,r3,1
 1084458:	02800084 	movi	r10,2
 108445c:	50f9c83a 	sub	fp,r10,r3
 1084460:	003f7f06 	br	1084260 <__ieee754_pow+0x74>
 1084464:	01300434 	movhi	r4,49168
 1084468:	9109883a 	add	r4,r18,r4
 108446c:	2408b03a 	or	r4,r4,r16
 1084470:	203f9826 	beq	r4,zero,10842d4 <__ieee754_pow+0xe8>
 1084474:	008ffc34 	movhi	r2,16368
 1084478:	10bfffc4 	addi	r2,r2,-1
 108447c:	1482f50e 	bge	r2,r18,1085054 <__ieee754_pow+0xe68>
 1084480:	b83fc316 	blt	r23,zero,1084390 <__ieee754_pow+0x1a4>
 1084484:	0005883a 	mov	r2,zero
 1084488:	b807883a 	mov	r3,r23
 108448c:	003f9306 	br	10842dc <__ieee754_pow+0xf0>
 1084490:	07000084 	movi	fp,2
 1084494:	003f7206 	br	1084260 <__ieee754_pow+0x74>
 1084498:	8009883a 	mov	r4,r16
 108449c:	980b883a 	mov	r5,r19
 10844a0:	200d883a 	mov	r6,r4
 10844a4:	280f883a 	mov	r7,r5
 10844a8:	10882380 	call	1088238 <__subdf3>
 10844ac:	1009883a 	mov	r4,r2
 10844b0:	180b883a 	mov	r5,r3
 10844b4:	100d883a 	mov	r6,r2
 10844b8:	180f883a 	mov	r7,r3
 10844bc:	1086e080 	call	1086e08 <__divdf3>
 10844c0:	003f8606 	br	10842dc <__ieee754_pow+0xf0>
 10844c4:	00800434 	movhi	r2,16
 10844c8:	10bfffc4 	addi	r2,r2,-1
 10844cc:	1482e816 	blt	r2,r18,1085070 <__ieee754_pow+0xe84>
 10844d0:	b009883a 	mov	r4,r22
 10844d4:	180b883a 	mov	r5,r3
 10844d8:	000d883a 	mov	r6,zero
 10844dc:	01d0d034 	movhi	r7,17216
 10844e0:	dac00915 	stw	r11,36(sp)
 10844e4:	10879cc0 	call	10879cc <__muldf3>
 10844e8:	dac00917 	ldw	r11,36(sp)
 10844ec:	102d883a 	mov	r22,r2
 10844f0:	1825883a 	mov	r18,r3
 10844f4:	013ff2c4 	movi	r4,-53
 10844f8:	9007d53a 	srai	r3,r18,20
 10844fc:	00800434 	movhi	r2,16
 1084500:	10bfffc4 	addi	r2,r2,-1
 1084504:	18ff0044 	addi	r3,r3,-1023
 1084508:	1911883a 	add	r8,r3,r4
 108450c:	00c00134 	movhi	r3,4
 1084510:	9084703a 	and	r2,r18,r2
 1084514:	18e62384 	addi	r3,r3,-26482
 1084518:	14cffc34 	orhi	r19,r2,16368
 108451c:	1882d10e 	bge	r3,r2,1085064 <__ieee754_pow+0xe78>
 1084520:	00c00334 	movhi	r3,12
 1084524:	18ed9e44 	addi	r3,r3,-18823
 1084528:	1883550e 	bge	r3,r2,1085280 <__ieee754_pow+0x1094>
 108452c:	00bffc34 	movhi	r2,65520
 1084530:	42000044 	addi	r8,r8,1
 1084534:	98a7883a 	add	r19,r19,r2
 1084538:	0021883a 	mov	r16,zero
 108453c:	0019883a 	mov	r12,zero
 1084540:	601890fa 	slli	r12,r12,3
 1084544:	008042b4 	movhi	r2,266
 1084548:	10815c04 	addi	r2,r2,1392
 108454c:	1305883a 	add	r2,r2,r12
 1084550:	13400017 	ldw	r13,0(r2)
 1084554:	12800117 	ldw	r10,4(r2)
 1084558:	b009883a 	mov	r4,r22
 108455c:	980b883a 	mov	r5,r19
 1084560:	680d883a 	mov	r6,r13
 1084564:	500f883a 	mov	r7,r10
 1084568:	da000815 	stw	r8,32(sp)
 108456c:	dac00915 	stw	r11,36(sp)
 1084570:	db000715 	stw	r12,28(sp)
 1084574:	da800315 	stw	r10,12(sp)
 1084578:	db400415 	stw	r13,16(sp)
 108457c:	10882380 	call	1088238 <__subdf3>
 1084580:	da800317 	ldw	r10,12(sp)
 1084584:	db400417 	ldw	r13,16(sp)
 1084588:	b009883a 	mov	r4,r22
 108458c:	500f883a 	mov	r7,r10
 1084590:	680d883a 	mov	r6,r13
 1084594:	980b883a 	mov	r5,r19
 1084598:	1829883a 	mov	r20,r3
 108459c:	d8800015 	stw	r2,0(sp)
 10845a0:	108656c0 	call	108656c <__adddf3>
 10845a4:	0009883a 	mov	r4,zero
 10845a8:	014ffc34 	movhi	r5,16368
 10845ac:	100d883a 	mov	r6,r2
 10845b0:	180f883a 	mov	r7,r3
 10845b4:	1086e080 	call	1086e08 <__divdf3>
 10845b8:	d9000017 	ldw	r4,0(sp)
 10845bc:	a00b883a 	mov	r5,r20
 10845c0:	100d883a 	mov	r6,r2
 10845c4:	180f883a 	mov	r7,r3
 10845c8:	d8c00615 	stw	r3,24(sp)
 10845cc:	d8800515 	stw	r2,20(sp)
 10845d0:	10879cc0 	call	10879cc <__muldf3>
 10845d4:	1025883a 	mov	r18,r2
 10845d8:	9805d07a 	srai	r2,r19,1
 10845dc:	1823883a 	mov	r17,r3
 10845e0:	880b883a 	mov	r5,r17
 10845e4:	10c80034 	orhi	r3,r2,8192
 10845e8:	00800234 	movhi	r2,8
 10845ec:	1885883a 	add	r2,r3,r2
 10845f0:	1421883a 	add	r16,r2,r16
 10845f4:	800f883a 	mov	r7,r16
 10845f8:	0009883a 	mov	r4,zero
 10845fc:	000d883a 	mov	r6,zero
 1084600:	10879cc0 	call	10879cc <__muldf3>
 1084604:	d9000017 	ldw	r4,0(sp)
 1084608:	a00b883a 	mov	r5,r20
 108460c:	100d883a 	mov	r6,r2
 1084610:	180f883a 	mov	r7,r3
 1084614:	10882380 	call	1088238 <__subdf3>
 1084618:	da800317 	ldw	r10,12(sp)
 108461c:	db400417 	ldw	r13,16(sp)
 1084620:	800b883a 	mov	r5,r16
 1084624:	500f883a 	mov	r7,r10
 1084628:	680d883a 	mov	r6,r13
 108462c:	0009883a 	mov	r4,zero
 1084630:	1829883a 	mov	r20,r3
 1084634:	d8800315 	stw	r2,12(sp)
 1084638:	10882380 	call	1088238 <__subdf3>
 108463c:	b009883a 	mov	r4,r22
 1084640:	980b883a 	mov	r5,r19
 1084644:	100d883a 	mov	r6,r2
 1084648:	180f883a 	mov	r7,r3
 108464c:	10882380 	call	1088238 <__subdf3>
 1084650:	880b883a 	mov	r5,r17
 1084654:	0009883a 	mov	r4,zero
 1084658:	100d883a 	mov	r6,r2
 108465c:	180f883a 	mov	r7,r3
 1084660:	10879cc0 	call	10879cc <__muldf3>
 1084664:	da400317 	ldw	r9,12(sp)
 1084668:	a00b883a 	mov	r5,r20
 108466c:	100d883a 	mov	r6,r2
 1084670:	4809883a 	mov	r4,r9
 1084674:	180f883a 	mov	r7,r3
 1084678:	10882380 	call	1088238 <__subdf3>
 108467c:	dbc00517 	ldw	r15,20(sp)
 1084680:	db800617 	ldw	r14,24(sp)
 1084684:	1009883a 	mov	r4,r2
 1084688:	780d883a 	mov	r6,r15
 108468c:	700f883a 	mov	r7,r14
 1084690:	180b883a 	mov	r5,r3
 1084694:	10879cc0 	call	10879cc <__muldf3>
 1084698:	9009883a 	mov	r4,r18
 108469c:	880b883a 	mov	r5,r17
 10846a0:	900d883a 	mov	r6,r18
 10846a4:	880f883a 	mov	r7,r17
 10846a8:	182d883a 	mov	r22,r3
 10846ac:	d8800015 	stw	r2,0(sp)
 10846b0:	10879cc0 	call	10879cc <__muldf3>
 10846b4:	1009883a 	mov	r4,r2
 10846b8:	180b883a 	mov	r5,r3
 10846bc:	100d883a 	mov	r6,r2
 10846c0:	180f883a 	mov	r7,r3
 10846c4:	1027883a 	mov	r19,r2
 10846c8:	1821883a 	mov	r16,r3
 10846cc:	10879cc0 	call	10879cc <__muldf3>
 10846d0:	01929174 	movhi	r6,19013
 10846d4:	01cff2b4 	movhi	r7,16330
 10846d8:	9809883a 	mov	r4,r19
 10846dc:	800b883a 	mov	r5,r16
 10846e0:	3193bbc4 	addi	r6,r6,20207
 10846e4:	39df8a04 	addi	r7,r7,32296
 10846e8:	1829883a 	mov	r20,r3
 10846ec:	d8800315 	stw	r2,12(sp)
 10846f0:	10879cc0 	call	10879cc <__muldf3>
 10846f4:	01a4f2b4 	movhi	r6,37834
 10846f8:	01cff3b4 	movhi	r7,16334
 10846fc:	1009883a 	mov	r4,r2
 1084700:	180b883a 	mov	r5,r3
 1084704:	31b6d944 	addi	r6,r6,-9371
 1084708:	39e19284 	addi	r7,r7,-31158
 108470c:	108656c0 	call	108656c <__adddf3>
 1084710:	980d883a 	mov	r6,r19
 1084714:	800f883a 	mov	r7,r16
 1084718:	1009883a 	mov	r4,r2
 108471c:	180b883a 	mov	r5,r3
 1084720:	10879cc0 	call	10879cc <__muldf3>
 1084724:	01aa4774 	movhi	r6,43293
 1084728:	01cff474 	movhi	r7,16337
 108472c:	1009883a 	mov	r4,r2
 1084730:	180b883a 	mov	r5,r3
 1084734:	31904044 	addi	r6,r6,16641
 1084738:	39dd1804 	addi	r7,r7,29792
 108473c:	108656c0 	call	108656c <__adddf3>
 1084740:	980d883a 	mov	r6,r19
 1084744:	800f883a 	mov	r7,r16
 1084748:	1009883a 	mov	r4,r2
 108474c:	180b883a 	mov	r5,r3
 1084750:	10879cc0 	call	10879cc <__muldf3>
 1084754:	019463f4 	movhi	r6,20879
 1084758:	01cff574 	movhi	r7,16341
 108475c:	1009883a 	mov	r4,r2
 1084760:	180b883a 	mov	r5,r3
 1084764:	31899344 	addi	r6,r6,9805
 1084768:	39d55544 	addi	r7,r7,21845
 108476c:	108656c0 	call	108656c <__adddf3>
 1084770:	980d883a 	mov	r6,r19
 1084774:	800f883a 	mov	r7,r16
 1084778:	1009883a 	mov	r4,r2
 108477c:	180b883a 	mov	r5,r3
 1084780:	10879cc0 	call	10879cc <__muldf3>
 1084784:	01b6dc34 	movhi	r6,56176
 1084788:	01cff6f4 	movhi	r7,16347
 108478c:	1009883a 	mov	r4,r2
 1084790:	180b883a 	mov	r5,r3
 1084794:	31aaffc4 	addi	r6,r6,-21505
 1084798:	39db6d84 	addi	r7,r7,28086
 108479c:	108656c0 	call	108656c <__adddf3>
 10847a0:	980d883a 	mov	r6,r19
 10847a4:	800f883a 	mov	r7,r16
 10847a8:	1009883a 	mov	r4,r2
 10847ac:	180b883a 	mov	r5,r3
 10847b0:	10879cc0 	call	10879cc <__muldf3>
 10847b4:	018cccf4 	movhi	r6,13107
 10847b8:	01cff8f4 	movhi	r7,16355
 10847bc:	1009883a 	mov	r4,r2
 10847c0:	180b883a 	mov	r5,r3
 10847c4:	318cc0c4 	addi	r6,r6,13059
 10847c8:	39ccccc4 	addi	r7,r7,13107
 10847cc:	108656c0 	call	108656c <__adddf3>
 10847d0:	da400317 	ldw	r9,12(sp)
 10847d4:	a00b883a 	mov	r5,r20
 10847d8:	100d883a 	mov	r6,r2
 10847dc:	4809883a 	mov	r4,r9
 10847e0:	180f883a 	mov	r7,r3
 10847e4:	10879cc0 	call	10879cc <__muldf3>
 10847e8:	880b883a 	mov	r5,r17
 10847ec:	900d883a 	mov	r6,r18
 10847f0:	880f883a 	mov	r7,r17
 10847f4:	0009883a 	mov	r4,zero
 10847f8:	1027883a 	mov	r19,r2
 10847fc:	1821883a 	mov	r16,r3
 1084800:	108656c0 	call	108656c <__adddf3>
 1084804:	d9800017 	ldw	r6,0(sp)
 1084808:	b00f883a 	mov	r7,r22
 108480c:	1009883a 	mov	r4,r2
 1084810:	180b883a 	mov	r5,r3
 1084814:	10879cc0 	call	10879cc <__muldf3>
 1084818:	980d883a 	mov	r6,r19
 108481c:	800f883a 	mov	r7,r16
 1084820:	1009883a 	mov	r4,r2
 1084824:	180b883a 	mov	r5,r3
 1084828:	108656c0 	call	108656c <__adddf3>
 108482c:	880f883a 	mov	r7,r17
 1084830:	880b883a 	mov	r5,r17
 1084834:	000d883a 	mov	r6,zero
 1084838:	0009883a 	mov	r4,zero
 108483c:	1029883a 	mov	r20,r2
 1084840:	1827883a 	mov	r19,r3
 1084844:	10879cc0 	call	10879cc <__muldf3>
 1084848:	1009883a 	mov	r4,r2
 108484c:	180b883a 	mov	r5,r3
 1084850:	000d883a 	mov	r6,zero
 1084854:	01d00234 	movhi	r7,16392
 1084858:	d8c00615 	stw	r3,24(sp)
 108485c:	d8800515 	stw	r2,20(sp)
 1084860:	108656c0 	call	108656c <__adddf3>
 1084864:	a00d883a 	mov	r6,r20
 1084868:	980f883a 	mov	r7,r19
 108486c:	1009883a 	mov	r4,r2
 1084870:	180b883a 	mov	r5,r3
 1084874:	108656c0 	call	108656c <__adddf3>
 1084878:	880b883a 	mov	r5,r17
 108487c:	000d883a 	mov	r6,zero
 1084880:	180f883a 	mov	r7,r3
 1084884:	0009883a 	mov	r4,zero
 1084888:	1821883a 	mov	r16,r3
 108488c:	10879cc0 	call	10879cc <__muldf3>
 1084890:	d9000017 	ldw	r4,0(sp)
 1084894:	b00b883a 	mov	r5,r22
 1084898:	800f883a 	mov	r7,r16
 108489c:	000d883a 	mov	r6,zero
 10848a0:	d8800115 	stw	r2,4(sp)
 10848a4:	d8c00215 	stw	r3,8(sp)
 10848a8:	10879cc0 	call	10879cc <__muldf3>
 10848ac:	800b883a 	mov	r5,r16
 10848b0:	0009883a 	mov	r4,zero
 10848b4:	000d883a 	mov	r6,zero
 10848b8:	01d00234 	movhi	r7,16392
 10848bc:	182d883a 	mov	r22,r3
 10848c0:	d8800315 	stw	r2,12(sp)
 10848c4:	10882380 	call	1088238 <__subdf3>
 10848c8:	dbc00517 	ldw	r15,20(sp)
 10848cc:	db800617 	ldw	r14,24(sp)
 10848d0:	1009883a 	mov	r4,r2
 10848d4:	780d883a 	mov	r6,r15
 10848d8:	700f883a 	mov	r7,r14
 10848dc:	180b883a 	mov	r5,r3
 10848e0:	10882380 	call	1088238 <__subdf3>
 10848e4:	a009883a 	mov	r4,r20
 10848e8:	980b883a 	mov	r5,r19
 10848ec:	100d883a 	mov	r6,r2
 10848f0:	180f883a 	mov	r7,r3
 10848f4:	10882380 	call	1088238 <__subdf3>
 10848f8:	900d883a 	mov	r6,r18
 10848fc:	880f883a 	mov	r7,r17
 1084900:	1009883a 	mov	r4,r2
 1084904:	180b883a 	mov	r5,r3
 1084908:	10879cc0 	call	10879cc <__muldf3>
 108490c:	da400317 	ldw	r9,12(sp)
 1084910:	b00b883a 	mov	r5,r22
 1084914:	100d883a 	mov	r6,r2
 1084918:	4809883a 	mov	r4,r9
 108491c:	180f883a 	mov	r7,r3
 1084920:	108656c0 	call	108656c <__adddf3>
 1084924:	d9000117 	ldw	r4,4(sp)
 1084928:	d9400217 	ldw	r5,8(sp)
 108492c:	100d883a 	mov	r6,r2
 1084930:	180f883a 	mov	r7,r3
 1084934:	102d883a 	mov	r22,r2
 1084938:	1825883a 	mov	r18,r3
 108493c:	108656c0 	call	108656c <__adddf3>
 1084940:	01cffbf4 	movhi	r7,16367
 1084944:	39f1c244 	addi	r7,r7,-14583
 1084948:	0009883a 	mov	r4,zero
 108494c:	180b883a 	mov	r5,r3
 1084950:	01b80034 	movhi	r6,57344
 1084954:	1823883a 	mov	r17,r3
 1084958:	10879cc0 	call	10879cc <__muldf3>
 108495c:	018516f4 	movhi	r6,5211
 1084960:	01ef8fb4 	movhi	r7,48702
 1084964:	880b883a 	mov	r5,r17
 1084968:	31807d44 	addi	r6,r6,501
 108496c:	39cbf804 	addi	r7,r7,12256
 1084970:	0009883a 	mov	r4,zero
 1084974:	1029883a 	mov	r20,r2
 1084978:	1827883a 	mov	r19,r3
 108497c:	10879cc0 	call	10879cc <__muldf3>
 1084980:	d9800117 	ldw	r6,4(sp)
 1084984:	d9c00217 	ldw	r7,8(sp)
 1084988:	880b883a 	mov	r5,r17
 108498c:	0009883a 	mov	r4,zero
 1084990:	1821883a 	mov	r16,r3
 1084994:	d8800415 	stw	r2,16(sp)
 1084998:	10882380 	call	1088238 <__subdf3>
 108499c:	b009883a 	mov	r4,r22
 10849a0:	900b883a 	mov	r5,r18
 10849a4:	100d883a 	mov	r6,r2
 10849a8:	180f883a 	mov	r7,r3
 10849ac:	10882380 	call	1088238 <__subdf3>
 10849b0:	01b70eb4 	movhi	r6,56378
 10849b4:	01cffbf4 	movhi	r7,16367
 10849b8:	1009883a 	mov	r4,r2
 10849bc:	180b883a 	mov	r5,r3
 10849c0:	3180ff44 	addi	r6,r6,1021
 10849c4:	39f1c244 	addi	r7,r7,-14583
 10849c8:	10879cc0 	call	10879cc <__muldf3>
 10849cc:	db400417 	ldw	r13,16(sp)
 10849d0:	800b883a 	mov	r5,r16
 10849d4:	100d883a 	mov	r6,r2
 10849d8:	6809883a 	mov	r4,r13
 10849dc:	180f883a 	mov	r7,r3
 10849e0:	108656c0 	call	108656c <__adddf3>
 10849e4:	db000717 	ldw	r12,28(sp)
 10849e8:	1009883a 	mov	r4,r2
 10849ec:	008042b4 	movhi	r2,266
 10849f0:	10815404 	addi	r2,r2,1360
 10849f4:	1305883a 	add	r2,r2,r12
 10849f8:	11800017 	ldw	r6,0(r2)
 10849fc:	11c00117 	ldw	r7,4(r2)
 1084a00:	180b883a 	mov	r5,r3
 1084a04:	108656c0 	call	108656c <__adddf3>
 1084a08:	da000817 	ldw	r8,32(sp)
 1084a0c:	1025883a 	mov	r18,r2
 1084a10:	1823883a 	mov	r17,r3
 1084a14:	4009883a 	mov	r4,r8
 1084a18:	1088b900 	call	1088b90 <__floatsidf>
 1084a1c:	db000717 	ldw	r12,28(sp)
 1084a20:	d8800115 	stw	r2,4(sp)
 1084a24:	008042b4 	movhi	r2,266
 1084a28:	10815804 	addi	r2,r2,1376
 1084a2c:	1319883a 	add	r12,r2,r12
 1084a30:	65800017 	ldw	r22,0(r12)
 1084a34:	63000117 	ldw	r12,4(r12)
 1084a38:	a009883a 	mov	r4,r20
 1084a3c:	980b883a 	mov	r5,r19
 1084a40:	900d883a 	mov	r6,r18
 1084a44:	880f883a 	mov	r7,r17
 1084a48:	db000015 	stw	r12,0(sp)
 1084a4c:	d8c00215 	stw	r3,8(sp)
 1084a50:	108656c0 	call	108656c <__adddf3>
 1084a54:	d9c00017 	ldw	r7,0(sp)
 1084a58:	1009883a 	mov	r4,r2
 1084a5c:	180b883a 	mov	r5,r3
 1084a60:	b00d883a 	mov	r6,r22
 1084a64:	108656c0 	call	108656c <__adddf3>
 1084a68:	d9800117 	ldw	r6,4(sp)
 1084a6c:	d9c00217 	ldw	r7,8(sp)
 1084a70:	1009883a 	mov	r4,r2
 1084a74:	180b883a 	mov	r5,r3
 1084a78:	108656c0 	call	108656c <__adddf3>
 1084a7c:	d9800117 	ldw	r6,4(sp)
 1084a80:	d9c00217 	ldw	r7,8(sp)
 1084a84:	0009883a 	mov	r4,zero
 1084a88:	180b883a 	mov	r5,r3
 1084a8c:	1821883a 	mov	r16,r3
 1084a90:	10882380 	call	1088238 <__subdf3>
 1084a94:	d9c00017 	ldw	r7,0(sp)
 1084a98:	1009883a 	mov	r4,r2
 1084a9c:	180b883a 	mov	r5,r3
 1084aa0:	b00d883a 	mov	r6,r22
 1084aa4:	10882380 	call	1088238 <__subdf3>
 1084aa8:	1009883a 	mov	r4,r2
 1084aac:	180b883a 	mov	r5,r3
 1084ab0:	a00d883a 	mov	r6,r20
 1084ab4:	980f883a 	mov	r7,r19
 1084ab8:	10882380 	call	1088238 <__subdf3>
 1084abc:	9009883a 	mov	r4,r18
 1084ac0:	880b883a 	mov	r5,r17
 1084ac4:	100d883a 	mov	r6,r2
 1084ac8:	180f883a 	mov	r7,r3
 1084acc:	10882380 	call	1088238 <__subdf3>
 1084ad0:	dac00917 	ldw	r11,36(sp)
 1084ad4:	e2bfffc4 	addi	r10,fp,-1
 1084ad8:	1027883a 	mov	r19,r2
 1084adc:	52d6b03a 	or	r11,r10,r11
 1084ae0:	1823883a 	mov	r17,r3
 1084ae4:	5801591e 	bne	r11,zero,108504c <__ieee754_pow+0xe60>
 1084ae8:	04affc34 	movhi	r18,49136
 1084aec:	b80f883a 	mov	r7,r23
 1084af0:	a809883a 	mov	r4,r21
 1084af4:	b80b883a 	mov	r5,r23
 1084af8:	000d883a 	mov	r6,zero
 1084afc:	10882380 	call	1088238 <__subdf3>
 1084b00:	1009883a 	mov	r4,r2
 1084b04:	180b883a 	mov	r5,r3
 1084b08:	000d883a 	mov	r6,zero
 1084b0c:	800f883a 	mov	r7,r16
 1084b10:	10879cc0 	call	10879cc <__muldf3>
 1084b14:	a809883a 	mov	r4,r21
 1084b18:	b80b883a 	mov	r5,r23
 1084b1c:	980d883a 	mov	r6,r19
 1084b20:	880f883a 	mov	r7,r17
 1084b24:	102d883a 	mov	r22,r2
 1084b28:	1829883a 	mov	r20,r3
 1084b2c:	10879cc0 	call	10879cc <__muldf3>
 1084b30:	b009883a 	mov	r4,r22
 1084b34:	a00b883a 	mov	r5,r20
 1084b38:	100d883a 	mov	r6,r2
 1084b3c:	180f883a 	mov	r7,r3
 1084b40:	108656c0 	call	108656c <__adddf3>
 1084b44:	b80b883a 	mov	r5,r23
 1084b48:	0009883a 	mov	r4,zero
 1084b4c:	000d883a 	mov	r6,zero
 1084b50:	800f883a 	mov	r7,r16
 1084b54:	1027883a 	mov	r19,r2
 1084b58:	1823883a 	mov	r17,r3
 1084b5c:	10879cc0 	call	10879cc <__muldf3>
 1084b60:	9809883a 	mov	r4,r19
 1084b64:	880b883a 	mov	r5,r17
 1084b68:	100d883a 	mov	r6,r2
 1084b6c:	180f883a 	mov	r7,r3
 1084b70:	102d883a 	mov	r22,r2
 1084b74:	182b883a 	mov	r21,r3
 1084b78:	108656c0 	call	108656c <__adddf3>
 1084b7c:	102f883a 	mov	r23,r2
 1084b80:	00902434 	movhi	r2,16528
 1084b84:	10bfffc4 	addi	r2,r2,-1
 1084b88:	1829883a 	mov	r20,r3
 1084b8c:	b013883a 	mov	r9,r22
 1084b90:	a811883a 	mov	r8,r21
 1084b94:	10c1080e 	bge	r2,r3,1084fb8 <__ieee754_pow+0xdcc>
 1084b98:	00efdc34 	movhi	r3,49008
 1084b9c:	a0c7883a 	add	r3,r20,r3
 1084ba0:	1dc6b03a 	or	r3,r3,r23
 1084ba4:	1801961e 	bne	r3,zero,1085200 <__ieee754_pow+0x1014>
 1084ba8:	01994b34 	movhi	r6,25900
 1084bac:	01cf25f4 	movhi	r7,15511
 1084bb0:	31a0bf84 	addi	r6,r6,-32002
 1084bb4:	39c551c4 	addi	r7,r7,5447
 1084bb8:	9809883a 	mov	r4,r19
 1084bbc:	880b883a 	mov	r5,r17
 1084bc0:	108656c0 	call	108656c <__adddf3>
 1084bc4:	b809883a 	mov	r4,r23
 1084bc8:	a00b883a 	mov	r5,r20
 1084bcc:	b00d883a 	mov	r6,r22
 1084bd0:	a80f883a 	mov	r7,r21
 1084bd4:	1039883a 	mov	fp,r2
 1084bd8:	1821883a 	mov	r16,r3
 1084bdc:	10882380 	call	1088238 <__subdf3>
 1084be0:	e009883a 	mov	r4,fp
 1084be4:	800b883a 	mov	r5,r16
 1084be8:	100d883a 	mov	r6,r2
 1084bec:	180f883a 	mov	r7,r3
 1084bf0:	108780c0 	call	108780c <__gedf2>
 1084bf4:	00818216 	blt	zero,r2,1085200 <__ieee754_pow+0x1014>
 1084bf8:	a021883a 	mov	r16,r20
 1084bfc:	8011d53a 	srai	r8,r16,20
 1084c00:	00800434 	movhi	r2,16
 1084c04:	a02ed7fa 	srli	r23,r20,31
 1084c08:	423f0084 	addi	r8,r8,-1022
 1084c0c:	1211d83a 	sra	r8,r2,r8
 1084c10:	00c00434 	movhi	r3,16
 1084c14:	18ffffc4 	addi	r3,r3,-1
 1084c18:	4529883a 	add	r20,r8,r20
 1084c1c:	a00a907a 	slli	r5,r20,1
 1084c20:	a0c4703a 	and	r2,r20,r3
 1084c24:	10800434 	orhi	r2,r2,16
 1084c28:	280ad57a 	srli	r5,r5,21
 1084c2c:	05cdc83a 	sub	r6,zero,r23
 1084c30:	b009883a 	mov	r4,r22
 1084c34:	29ff0044 	addi	r7,r5,-1023
 1084c38:	19c7d83a 	sra	r3,r3,r7
 1084c3c:	01c104c4 	movi	r7,1043
 1084c40:	394bc83a 	sub	r5,r7,r5
 1084c44:	1145d83a 	sra	r2,r2,r5
 1084c48:	00ce303a 	nor	r7,zero,r3
 1084c4c:	3d0e703a 	and	r7,r7,r20
 1084c50:	1184f03a 	xor	r2,r2,r6
 1084c54:	a80b883a 	mov	r5,r21
 1084c58:	000d883a 	mov	r6,zero
 1084c5c:	15ef883a 	add	r23,r2,r23
 1084c60:	ddc00115 	stw	r23,4(sp)
 1084c64:	10882380 	call	1088238 <__subdf3>
 1084c68:	9809883a 	mov	r4,r19
 1084c6c:	880b883a 	mov	r5,r17
 1084c70:	100d883a 	mov	r6,r2
 1084c74:	180f883a 	mov	r7,r3
 1084c78:	d8c00815 	stw	r3,32(sp)
 1084c7c:	d8800315 	stw	r2,12(sp)
 1084c80:	108656c0 	call	108656c <__adddf3>
 1084c84:	d8800117 	ldw	r2,4(sp)
 1084c88:	da000817 	ldw	r8,32(sp)
 1084c8c:	da400317 	ldw	r9,12(sp)
 1084c90:	1004953a 	slli	r2,r2,20
 1084c94:	1829883a 	mov	r20,r3
 1084c98:	d8800015 	stw	r2,0(sp)
 1084c9c:	01cff9b4 	movhi	r7,16358
 1084ca0:	a00b883a 	mov	r5,r20
 1084ca4:	39cb90c4 	addi	r7,r7,11843
 1084ca8:	0009883a 	mov	r4,zero
 1084cac:	000d883a 	mov	r6,zero
 1084cb0:	da000815 	stw	r8,32(sp)
 1084cb4:	da400315 	stw	r9,12(sp)
 1084cb8:	10879cc0 	call	10879cc <__muldf3>
 1084cbc:	da400317 	ldw	r9,12(sp)
 1084cc0:	da000817 	ldw	r8,32(sp)
 1084cc4:	a00b883a 	mov	r5,r20
 1084cc8:	480d883a 	mov	r6,r9
 1084ccc:	400f883a 	mov	r7,r8
 1084cd0:	0009883a 	mov	r4,zero
 1084cd4:	1039883a 	mov	fp,r2
 1084cd8:	182d883a 	mov	r22,r3
 1084cdc:	10882380 	call	1088238 <__subdf3>
 1084ce0:	9809883a 	mov	r4,r19
 1084ce4:	880b883a 	mov	r5,r17
 1084ce8:	100d883a 	mov	r6,r2
 1084cec:	180f883a 	mov	r7,r3
 1084cf0:	10882380 	call	1088238 <__subdf3>
 1084cf4:	01bfbeb4 	movhi	r6,65274
 1084cf8:	01cff9b4 	movhi	r7,16358
 1084cfc:	1009883a 	mov	r4,r2
 1084d00:	180b883a 	mov	r5,r3
 1084d04:	318e7bc4 	addi	r6,r6,14831
 1084d08:	39cb9084 	addi	r7,r7,11842
 1084d0c:	10879cc0 	call	10879cc <__muldf3>
 1084d10:	01832a34 	movhi	r6,3240
 1084d14:	01ef8834 	movhi	r7,48672
 1084d18:	a00b883a 	mov	r5,r20
 1084d1c:	319b0e44 	addi	r6,r6,27705
 1084d20:	39d71844 	addi	r7,r7,23649
 1084d24:	0009883a 	mov	r4,zero
 1084d28:	1023883a 	mov	r17,r2
 1084d2c:	1821883a 	mov	r16,r3
 1084d30:	10879cc0 	call	10879cc <__muldf3>
 1084d34:	8809883a 	mov	r4,r17
 1084d38:	800b883a 	mov	r5,r16
 1084d3c:	100d883a 	mov	r6,r2
 1084d40:	180f883a 	mov	r7,r3
 1084d44:	108656c0 	call	108656c <__adddf3>
 1084d48:	e009883a 	mov	r4,fp
 1084d4c:	b00b883a 	mov	r5,r22
 1084d50:	100d883a 	mov	r6,r2
 1084d54:	180f883a 	mov	r7,r3
 1084d58:	1029883a 	mov	r20,r2
 1084d5c:	1827883a 	mov	r19,r3
 1084d60:	108656c0 	call	108656c <__adddf3>
 1084d64:	e00d883a 	mov	r6,fp
 1084d68:	b00f883a 	mov	r7,r22
 1084d6c:	1009883a 	mov	r4,r2
 1084d70:	180b883a 	mov	r5,r3
 1084d74:	1023883a 	mov	r17,r2
 1084d78:	1821883a 	mov	r16,r3
 1084d7c:	10882380 	call	1088238 <__subdf3>
 1084d80:	a009883a 	mov	r4,r20
 1084d84:	980b883a 	mov	r5,r19
 1084d88:	100d883a 	mov	r6,r2
 1084d8c:	180f883a 	mov	r7,r3
 1084d90:	10882380 	call	1088238 <__subdf3>
 1084d94:	8809883a 	mov	r4,r17
 1084d98:	800b883a 	mov	r5,r16
 1084d9c:	880d883a 	mov	r6,r17
 1084da0:	800f883a 	mov	r7,r16
 1084da4:	1039883a 	mov	fp,r2
 1084da8:	182d883a 	mov	r22,r3
 1084dac:	10879cc0 	call	10879cc <__muldf3>
 1084db0:	019caff4 	movhi	r6,29375
 1084db4:	01cf99b4 	movhi	r7,15974
 1084db8:	1009883a 	mov	r4,r2
 1084dbc:	180b883a 	mov	r5,r3
 1084dc0:	31a93404 	addi	r6,r6,-23344
 1084dc4:	39cdda44 	addi	r7,r7,14185
 1084dc8:	1029883a 	mov	r20,r2
 1084dcc:	1827883a 	mov	r19,r3
 1084dd0:	10879cc0 	call	10879cc <__muldf3>
 1084dd4:	01b174b4 	movhi	r6,50642
 1084dd8:	01cfaf34 	movhi	r7,16060
 1084ddc:	1009883a 	mov	r4,r2
 1084de0:	180b883a 	mov	r5,r3
 1084de4:	319afc44 	addi	r6,r6,27633
 1084de8:	39ef5044 	addi	r7,r7,-17087
 1084dec:	10882380 	call	1088238 <__subdf3>
 1084df0:	a00d883a 	mov	r6,r20
 1084df4:	980f883a 	mov	r7,r19
 1084df8:	1009883a 	mov	r4,r2
 1084dfc:	180b883a 	mov	r5,r3
 1084e00:	10879cc0 	call	10879cc <__muldf3>
 1084e04:	01abc9b4 	movhi	r6,44838
 1084e08:	01cfc474 	movhi	r7,16145
 1084e0c:	1009883a 	mov	r4,r2
 1084e10:	180b883a 	mov	r5,r3
 1084e14:	31b78b04 	addi	r6,r6,-8660
 1084e18:	39d59a84 	addi	r7,r7,22122
 1084e1c:	108656c0 	call	108656c <__adddf3>
 1084e20:	a00d883a 	mov	r6,r20
 1084e24:	980f883a 	mov	r7,r19
 1084e28:	1009883a 	mov	r4,r2
 1084e2c:	180b883a 	mov	r5,r3
 1084e30:	10879cc0 	call	10879cc <__muldf3>
 1084e34:	0185aff4 	movhi	r6,5823
 1084e38:	01cfd9f4 	movhi	r7,16231
 1084e3c:	1009883a 	mov	r4,r2
 1084e40:	180b883a 	mov	r5,r3
 1084e44:	31af64c4 	addi	r6,r6,-17005
 1084e48:	39f05b04 	addi	r7,r7,-16020
 1084e4c:	10882380 	call	1088238 <__subdf3>
 1084e50:	a00d883a 	mov	r6,r20
 1084e54:	980f883a 	mov	r7,r19
 1084e58:	1009883a 	mov	r4,r2
 1084e5c:	180b883a 	mov	r5,r3
 1084e60:	10879cc0 	call	10879cc <__muldf3>
 1084e64:	01955574 	movhi	r6,21845
 1084e68:	01cff174 	movhi	r7,16325
 1084e6c:	1009883a 	mov	r4,r2
 1084e70:	180b883a 	mov	r5,r3
 1084e74:	31954f84 	addi	r6,r6,21822
 1084e78:	39d55544 	addi	r7,r7,21845
 1084e7c:	108656c0 	call	108656c <__adddf3>
 1084e80:	a00d883a 	mov	r6,r20
 1084e84:	980f883a 	mov	r7,r19
 1084e88:	1009883a 	mov	r4,r2
 1084e8c:	180b883a 	mov	r5,r3
 1084e90:	10879cc0 	call	10879cc <__muldf3>
 1084e94:	8809883a 	mov	r4,r17
 1084e98:	800b883a 	mov	r5,r16
 1084e9c:	100d883a 	mov	r6,r2
 1084ea0:	180f883a 	mov	r7,r3
 1084ea4:	10882380 	call	1088238 <__subdf3>
 1084ea8:	8809883a 	mov	r4,r17
 1084eac:	800b883a 	mov	r5,r16
 1084eb0:	100d883a 	mov	r6,r2
 1084eb4:	180f883a 	mov	r7,r3
 1084eb8:	1029883a 	mov	r20,r2
 1084ebc:	1827883a 	mov	r19,r3
 1084ec0:	10879cc0 	call	10879cc <__muldf3>
 1084ec4:	a009883a 	mov	r4,r20
 1084ec8:	980b883a 	mov	r5,r19
 1084ecc:	000d883a 	mov	r6,zero
 1084ed0:	01d00034 	movhi	r7,16384
 1084ed4:	102b883a 	mov	r21,r2
 1084ed8:	182f883a 	mov	r23,r3
 1084edc:	10882380 	call	1088238 <__subdf3>
 1084ee0:	a809883a 	mov	r4,r21
 1084ee4:	b80b883a 	mov	r5,r23
 1084ee8:	100d883a 	mov	r6,r2
 1084eec:	180f883a 	mov	r7,r3
 1084ef0:	1086e080 	call	1086e08 <__divdf3>
 1084ef4:	8809883a 	mov	r4,r17
 1084ef8:	800b883a 	mov	r5,r16
 1084efc:	e00d883a 	mov	r6,fp
 1084f00:	b00f883a 	mov	r7,r22
 1084f04:	1029883a 	mov	r20,r2
 1084f08:	1827883a 	mov	r19,r3
 1084f0c:	10879cc0 	call	10879cc <__muldf3>
 1084f10:	1009883a 	mov	r4,r2
 1084f14:	180b883a 	mov	r5,r3
 1084f18:	e00d883a 	mov	r6,fp
 1084f1c:	b00f883a 	mov	r7,r22
 1084f20:	108656c0 	call	108656c <__adddf3>
 1084f24:	a009883a 	mov	r4,r20
 1084f28:	980b883a 	mov	r5,r19
 1084f2c:	100d883a 	mov	r6,r2
 1084f30:	180f883a 	mov	r7,r3
 1084f34:	10882380 	call	1088238 <__subdf3>
 1084f38:	1009883a 	mov	r4,r2
 1084f3c:	180b883a 	mov	r5,r3
 1084f40:	880d883a 	mov	r6,r17
 1084f44:	800f883a 	mov	r7,r16
 1084f48:	10882380 	call	1088238 <__subdf3>
 1084f4c:	0009883a 	mov	r4,zero
 1084f50:	180f883a 	mov	r7,r3
 1084f54:	014ffc34 	movhi	r5,16368
 1084f58:	100d883a 	mov	r6,r2
 1084f5c:	10882380 	call	1088238 <__subdf3>
 1084f60:	d9000017 	ldw	r4,0(sp)
 1084f64:	190f883a 	add	r7,r3,r4
 1084f68:	3809d53a 	srai	r4,r7,20
 1084f6c:	0100c70e 	bge	zero,r4,108528c <__ieee754_pow+0x10a0>
 1084f70:	100d883a 	mov	r6,r2
 1084f74:	0009883a 	mov	r4,zero
 1084f78:	900b883a 	mov	r5,r18
 1084f7c:	10879cc0 	call	10879cc <__muldf3>
 1084f80:	003cd606 	br	10842dc <__ieee754_pow+0xf0>
 1084f84:	00b00434 	movhi	r2,49168
 1084f88:	9085883a 	add	r2,r18,r2
 1084f8c:	e084b03a 	or	r2,fp,r2
 1084f90:	1000aa1e 	bne	r2,zero,108523c <__ieee754_pow+0x1050>
 1084f94:	b009883a 	mov	r4,r22
 1084f98:	180b883a 	mov	r5,r3
 1084f9c:	003d4006 	br	10844a0 <__ieee754_pow+0x2b4>
 1084fa0:	8009883a 	mov	r4,r16
 1084fa4:	980b883a 	mov	r5,r19
 1084fa8:	800d883a 	mov	r6,r16
 1084fac:	980f883a 	mov	r7,r19
 1084fb0:	10879cc0 	call	10879cc <__muldf3>
 1084fb4:	003cc906 	br	10842dc <__ieee754_pow+0xf0>
 1084fb8:	04200034 	movhi	r16,32768
 1084fbc:	843fffc4 	addi	r16,r16,-1
 1084fc0:	00902474 	movhi	r2,16529
 1084fc4:	1c20703a 	and	r16,r3,r16
 1084fc8:	10b2ffc4 	addi	r2,r2,-13313
 1084fcc:	1400a70e 	bge	r2,r16,108526c <__ieee754_pow+0x1080>
 1084fd0:	008fdbf4 	movhi	r2,16239
 1084fd4:	108d0004 	addi	r2,r2,13312
 1084fd8:	1885883a 	add	r2,r3,r2
 1084fdc:	15c4b03a 	or	r2,r2,r23
 1084fe0:	10000b1e 	bne	r2,zero,1085010 <__ieee754_pow+0xe24>
 1084fe4:	b809883a 	mov	r4,r23
 1084fe8:	180b883a 	mov	r5,r3
 1084fec:	b00d883a 	mov	r6,r22
 1084ff0:	a80f883a 	mov	r7,r21
 1084ff4:	10882380 	call	1088238 <__subdf3>
 1084ff8:	9809883a 	mov	r4,r19
 1084ffc:	880b883a 	mov	r5,r17
 1085000:	100d883a 	mov	r6,r2
 1085004:	180f883a 	mov	r7,r3
 1085008:	10878ec0 	call	10878ec <__ledf2>
 108500c:	00befb16 	blt	zero,r2,1084bfc <__ieee754_pow+0xa10>
 1085010:	01b0be74 	movhi	r6,49913
 1085014:	01c06974 	movhi	r7,421
 1085018:	900b883a 	mov	r5,r18
 108501c:	31bcd644 	addi	r6,r6,-3239
 1085020:	39db87c4 	addi	r7,r7,28191
 1085024:	0009883a 	mov	r4,zero
 1085028:	10879cc0 	call	10879cc <__muldf3>
 108502c:	01b0be74 	movhi	r6,49913
 1085030:	01c06974 	movhi	r7,421
 1085034:	1009883a 	mov	r4,r2
 1085038:	180b883a 	mov	r5,r3
 108503c:	31bcd644 	addi	r6,r6,-3239
 1085040:	39db87c4 	addi	r7,r7,28191
 1085044:	10879cc0 	call	10879cc <__muldf3>
 1085048:	003ca406 	br	10842dc <__ieee754_pow+0xf0>
 108504c:	048ffc34 	movhi	r18,16368
 1085050:	003ea606 	br	1084aec <__ieee754_pow+0x900>
 1085054:	b83cce0e 	bge	r23,zero,1084390 <__ieee754_pow+0x1a4>
 1085058:	0005883a 	mov	r2,zero
 108505c:	b8e0003c 	xorhi	r3,r23,32768
 1085060:	003c9e06 	br	10842dc <__ieee754_pow+0xf0>
 1085064:	0021883a 	mov	r16,zero
 1085068:	0019883a 	mov	r12,zero
 108506c:	003d3406 	br	1084540 <__ieee754_pow+0x354>
 1085070:	0009883a 	mov	r4,zero
 1085074:	003d2006 	br	10844f8 <__ieee754_pow+0x30c>
 1085078:	008ffc34 	movhi	r2,16368
 108507c:	10bfff84 	addi	r2,r2,-2
 1085080:	14bcc20e 	bge	r2,r18,108438c <__ieee754_pow+0x1a0>
 1085084:	01cffc34 	movhi	r7,16368
 1085088:	3cbcd916 	blt	r7,r18,10843f0 <__ieee754_pow+0x204>
 108508c:	b009883a 	mov	r4,r22
 1085090:	000d883a 	mov	r6,zero
 1085094:	180b883a 	mov	r5,r3
 1085098:	dac00915 	stw	r11,36(sp)
 108509c:	10882380 	call	1088238 <__subdf3>
 10850a0:	01cffdf4 	movhi	r7,16375
 10850a4:	1009883a 	mov	r4,r2
 10850a8:	180b883a 	mov	r5,r3
 10850ac:	39c551c4 	addi	r7,r7,5447
 10850b0:	01980034 	movhi	r6,24576
 10850b4:	1023883a 	mov	r17,r2
 10850b8:	1821883a 	mov	r16,r3
 10850bc:	10879cc0 	call	10879cc <__muldf3>
 10850c0:	01be17b4 	movhi	r6,63582
 10850c4:	01cf9574 	movhi	r7,15957
 10850c8:	8809883a 	mov	r4,r17
 10850cc:	800b883a 	mov	r5,r16
 10850d0:	31b7d104 	addi	r6,r6,-8380
 10850d4:	39eb82c4 	addi	r7,r7,-20981
 10850d8:	1027883a 	mov	r19,r2
 10850dc:	1825883a 	mov	r18,r3
 10850e0:	10879cc0 	call	10879cc <__muldf3>
 10850e4:	8809883a 	mov	r4,r17
 10850e8:	800b883a 	mov	r5,r16
 10850ec:	880d883a 	mov	r6,r17
 10850f0:	800f883a 	mov	r7,r16
 10850f4:	1829883a 	mov	r20,r3
 10850f8:	d8800815 	stw	r2,32(sp)
 10850fc:	10879cc0 	call	10879cc <__muldf3>
 1085100:	8809883a 	mov	r4,r17
 1085104:	800b883a 	mov	r5,r16
 1085108:	000d883a 	mov	r6,zero
 108510c:	01cff434 	movhi	r7,16336
 1085110:	182d883a 	mov	r22,r3
 1085114:	d8800315 	stw	r2,12(sp)
 1085118:	10879cc0 	call	10879cc <__muldf3>
 108511c:	01155574 	movhi	r4,21845
 1085120:	014ff574 	movhi	r5,16341
 1085124:	21155544 	addi	r4,r4,21845
 1085128:	29555544 	addi	r5,r5,21845
 108512c:	100d883a 	mov	r6,r2
 1085130:	180f883a 	mov	r7,r3
 1085134:	10882380 	call	1088238 <__subdf3>
 1085138:	880d883a 	mov	r6,r17
 108513c:	800f883a 	mov	r7,r16
 1085140:	1009883a 	mov	r4,r2
 1085144:	180b883a 	mov	r5,r3
 1085148:	10879cc0 	call	10879cc <__muldf3>
 108514c:	0009883a 	mov	r4,zero
 1085150:	014ff834 	movhi	r5,16352
 1085154:	100d883a 	mov	r6,r2
 1085158:	180f883a 	mov	r7,r3
 108515c:	10882380 	call	1088238 <__subdf3>
 1085160:	da400317 	ldw	r9,12(sp)
 1085164:	b00b883a 	mov	r5,r22
 1085168:	100d883a 	mov	r6,r2
 108516c:	4809883a 	mov	r4,r9
 1085170:	180f883a 	mov	r7,r3
 1085174:	10879cc0 	call	10879cc <__muldf3>
 1085178:	01994b34 	movhi	r6,25900
 108517c:	01cffdf4 	movhi	r7,16375
 1085180:	1009883a 	mov	r4,r2
 1085184:	180b883a 	mov	r5,r3
 1085188:	31a0bf84 	addi	r6,r6,-32002
 108518c:	39c551c4 	addi	r7,r7,5447
 1085190:	10879cc0 	call	10879cc <__muldf3>
 1085194:	da000817 	ldw	r8,32(sp)
 1085198:	a00b883a 	mov	r5,r20
 108519c:	100d883a 	mov	r6,r2
 10851a0:	4009883a 	mov	r4,r8
 10851a4:	180f883a 	mov	r7,r3
 10851a8:	10882380 	call	1088238 <__subdf3>
 10851ac:	9809883a 	mov	r4,r19
 10851b0:	900b883a 	mov	r5,r18
 10851b4:	100d883a 	mov	r6,r2
 10851b8:	180f883a 	mov	r7,r3
 10851bc:	1029883a 	mov	r20,r2
 10851c0:	1823883a 	mov	r17,r3
 10851c4:	108656c0 	call	108656c <__adddf3>
 10851c8:	0009883a 	mov	r4,zero
 10851cc:	180b883a 	mov	r5,r3
 10851d0:	980d883a 	mov	r6,r19
 10851d4:	900f883a 	mov	r7,r18
 10851d8:	1821883a 	mov	r16,r3
 10851dc:	10882380 	call	1088238 <__subdf3>
 10851e0:	a009883a 	mov	r4,r20
 10851e4:	003e3606 	br	1084ac0 <__ieee754_pow+0x8d4>
 10851e8:	0009883a 	mov	r4,zero
 10851ec:	880b883a 	mov	r5,r17
 10851f0:	800d883a 	mov	r6,r16
 10851f4:	980f883a 	mov	r7,r19
 10851f8:	1086e080 	call	1086e08 <__divdf3>
 10851fc:	003c3706 	br	10842dc <__ieee754_pow+0xf0>
 1085200:	01a20034 	movhi	r6,34816
 1085204:	01df8e34 	movhi	r7,32312
 1085208:	900b883a 	mov	r5,r18
 108520c:	319d6704 	addi	r6,r6,30108
 1085210:	39f90f04 	addi	r7,r7,-7108
 1085214:	0009883a 	mov	r4,zero
 1085218:	10879cc0 	call	10879cc <__muldf3>
 108521c:	01a20034 	movhi	r6,34816
 1085220:	01df8e34 	movhi	r7,32312
 1085224:	1009883a 	mov	r4,r2
 1085228:	180b883a 	mov	r5,r3
 108522c:	319d6704 	addi	r6,r6,30108
 1085230:	39f90f04 	addi	r7,r7,-7108
 1085234:	10879cc0 	call	10879cc <__muldf3>
 1085238:	003c2806 	br	10842dc <__ieee754_pow+0xf0>
 108523c:	00800044 	movi	r2,1
 1085240:	e0bc5e1e 	bne	fp,r2,10843bc <__ieee754_pow+0x1d0>
 1085244:	18e0003c 	xorhi	r3,r3,32768
 1085248:	b005883a 	mov	r2,r22
 108524c:	003c2306 	br	10842dc <__ieee754_pow+0xf0>
 1085250:	303c3d1e 	bne	r6,zero,1084348 <__ieee754_pow+0x15c>
 1085254:	1907c83a 	sub	r3,r3,r4
 1085258:	88c5d83a 	sra	r2,r17,r3
 108525c:	10c6983a 	sll	r3,r2,r3
 1085260:	1c401126 	beq	r3,r17,10852a8 <__ieee754_pow+0x10bc>
 1085264:	0039883a 	mov	fp,zero
 1085268:	003c0006 	br	108426c <__ieee754_pow+0x80>
 108526c:	008ff834 	movhi	r2,16352
 1085270:	143e6216 	blt	r2,r16,1084bfc <__ieee754_pow+0xa10>
 1085274:	d8000015 	stw	zero,0(sp)
 1085278:	d8000115 	stw	zero,4(sp)
 108527c:	003e8706 	br	1084c9c <__ieee754_pow+0xab0>
 1085280:	04000134 	movhi	r16,4
 1085284:	03000044 	movi	r12,1
 1085288:	003cad06 	br	1084540 <__ieee754_pow+0x354>
 108528c:	d9800117 	ldw	r6,4(sp)
 1085290:	1009883a 	mov	r4,r2
 1085294:	180b883a 	mov	r5,r3
 1085298:	1085d680 	call	1085d68 <scalbn>
 108529c:	100d883a 	mov	r6,r2
 10852a0:	180f883a 	mov	r7,r3
 10852a4:	003f3306 	br	1084f74 <__ieee754_pow+0xd88>
 10852a8:	1080004c 	andi	r2,r2,1
 10852ac:	02800084 	movi	r10,2
 10852b0:	50b9c83a 	sub	fp,r10,r2
 10852b4:	003bed06 	br	108426c <__ieee754_pow+0x80>

010852b8 <__ieee754_sqrt>:
 10852b8:	defffd04 	addi	sp,sp,-12
 10852bc:	dc400115 	stw	r17,4(sp)
 10852c0:	dc000015 	stw	r16,0(sp)
 10852c4:	dfc00215 	stw	ra,8(sp)
 10852c8:	28dffc2c 	andhi	r3,r5,32752
 10852cc:	009ffc34 	movhi	r2,32752
 10852d0:	2821883a 	mov	r16,r5
 10852d4:	2023883a 	mov	r17,r4
 10852d8:	18807c26 	beq	r3,r2,10854cc <__ieee754_sqrt+0x214>
 10852dc:	2011883a 	mov	r8,r4
 10852e0:	01405f0e 	bge	zero,r5,1085460 <__ieee754_sqrt+0x1a8>
 10852e4:	2815d53a 	srai	r10,r5,20
 10852e8:	50006a26 	beq	r10,zero,1085494 <__ieee754_sqrt+0x1dc>
 10852ec:	00800434 	movhi	r2,16
 10852f0:	52bf0044 	addi	r10,r10,-1023
 10852f4:	10bfffc4 	addi	r2,r2,-1
 10852f8:	8084703a 	and	r2,r16,r2
 10852fc:	50c0004c 	andi	r3,r10,1
 1085300:	10800434 	orhi	r2,r2,16
 1085304:	18004f1e 	bne	r3,zero,1085444 <__ieee754_sqrt+0x18c>
 1085308:	4006d7fa 	srli	r3,r8,31
 108530c:	5015d07a 	srai	r10,r10,1
 1085310:	1085883a 	add	r2,r2,r2
 1085314:	10c5883a 	add	r2,r2,r3
 1085318:	01800584 	movi	r6,22
 108531c:	4207883a 	add	r3,r8,r8
 1085320:	0013883a 	mov	r9,zero
 1085324:	000b883a 	mov	r5,zero
 1085328:	01000834 	movhi	r4,32
 108532c:	290f883a 	add	r7,r5,r4
 1085330:	1810d7fa 	srli	r8,r3,31
 1085334:	31bfffc4 	addi	r6,r6,-1
 1085338:	11c00316 	blt	r2,r7,1085348 <__ieee754_sqrt+0x90>
 108533c:	11c5c83a 	sub	r2,r2,r7
 1085340:	390b883a 	add	r5,r7,r4
 1085344:	4913883a 	add	r9,r9,r4
 1085348:	1085883a 	add	r2,r2,r2
 108534c:	1205883a 	add	r2,r2,r8
 1085350:	18c7883a 	add	r3,r3,r3
 1085354:	2008d07a 	srli	r4,r4,1
 1085358:	303ff41e 	bne	r6,zero,108532c <__ieee754_sqrt+0x74>
 108535c:	01200034 	movhi	r4,32768
 1085360:	01c00804 	movi	r7,32
 1085364:	0011883a 	mov	r8,zero
 1085368:	0017883a 	mov	r11,zero
 108536c:	201b883a 	mov	r13,r4
 1085370:	00000806 	br	1085394 <__ieee754_sqrt+0xdc>
 1085374:	11401726 	beq	r2,r5,10853d4 <__ieee754_sqrt+0x11c>
 1085378:	180cd7fa 	srli	r6,r3,31
 108537c:	1085883a 	add	r2,r2,r2
 1085380:	39ffffc4 	addi	r7,r7,-1
 1085384:	1185883a 	add	r2,r2,r6
 1085388:	18c7883a 	add	r3,r3,r3
 108538c:	2008d07a 	srli	r4,r4,1
 1085390:	38001726 	beq	r7,zero,10853f0 <__ieee754_sqrt+0x138>
 1085394:	590d883a 	add	r6,r11,r4
 1085398:	28bff60e 	bge	r5,r2,1085374 <__ieee754_sqrt+0xbc>
 108539c:	3320002c 	andhi	r12,r6,32768
 10853a0:	3117883a 	add	r11,r6,r4
 10853a4:	63400826 	beq	r12,r13,10853c8 <__ieee754_sqrt+0x110>
 10853a8:	2819883a 	mov	r12,r5
 10853ac:	1145c83a 	sub	r2,r2,r5
 10853b0:	1980012e 	bgeu	r3,r6,10853b8 <__ieee754_sqrt+0x100>
 10853b4:	10bfffc4 	addi	r2,r2,-1
 10853b8:	1987c83a 	sub	r3,r3,r6
 10853bc:	4111883a 	add	r8,r8,r4
 10853c0:	600b883a 	mov	r5,r12
 10853c4:	003fec06 	br	1085378 <__ieee754_sqrt+0xc0>
 10853c8:	583ff716 	blt	r11,zero,10853a8 <__ieee754_sqrt+0xf0>
 10853cc:	2b000044 	addi	r12,r5,1
 10853d0:	003ff606 	br	10853ac <__ieee754_sqrt+0xf4>
 10853d4:	19801936 	bltu	r3,r6,108543c <__ieee754_sqrt+0x184>
 10853d8:	3320002c 	andhi	r12,r6,32768
 10853dc:	3117883a 	add	r11,r6,r4
 10853e0:	63404626 	beq	r12,r13,10854fc <__ieee754_sqrt+0x244>
 10853e4:	1019883a 	mov	r12,r2
 10853e8:	0005883a 	mov	r2,zero
 10853ec:	003ff206 	br	10853b8 <__ieee754_sqrt+0x100>
 10853f0:	10c4b03a 	or	r2,r2,r3
 10853f4:	10000426 	beq	r2,zero,1085408 <__ieee754_sqrt+0x150>
 10853f8:	00bfffc4 	movi	r2,-1
 10853fc:	40804326 	beq	r8,r2,108550c <__ieee754_sqrt+0x254>
 1085400:	4080004c 	andi	r2,r8,1
 1085404:	1211883a 	add	r8,r2,r8
 1085408:	4004d07a 	srli	r2,r8,1
 108540c:	4807d07a 	srai	r3,r9,1
 1085410:	010ff834 	movhi	r4,16352
 1085414:	4a40004c 	andi	r9,r9,1
 1085418:	1909883a 	add	r4,r3,r4
 108541c:	48000e1e 	bne	r9,zero,1085458 <__ieee754_sqrt+0x1a0>
 1085420:	5006953a 	slli	r3,r10,20
 1085424:	1907883a 	add	r3,r3,r4
 1085428:	dfc00217 	ldw	ra,8(sp)
 108542c:	dc400117 	ldw	r17,4(sp)
 1085430:	dc000017 	ldw	r16,0(sp)
 1085434:	dec00304 	addi	sp,sp,12
 1085438:	f800283a 	ret
 108543c:	100b883a 	mov	r5,r2
 1085440:	003fcd06 	br	1085378 <__ieee754_sqrt+0xc0>
 1085444:	4006d7fa 	srli	r3,r8,31
 1085448:	1085883a 	add	r2,r2,r2
 108544c:	4211883a 	add	r8,r8,r8
 1085450:	10c5883a 	add	r2,r2,r3
 1085454:	003fac06 	br	1085308 <__ieee754_sqrt+0x50>
 1085458:	10a00034 	orhi	r2,r2,32768
 108545c:	003ff006 	br	1085420 <__ieee754_sqrt+0x168>
 1085460:	00a00034 	movhi	r2,32768
 1085464:	10bfffc4 	addi	r2,r2,-1
 1085468:	2884703a 	and	r2,r5,r2
 108546c:	1104b03a 	or	r2,r2,r4
 1085470:	10001f26 	beq	r2,zero,10854f0 <__ieee754_sqrt+0x238>
 1085474:	28002c1e 	bne	r5,zero,1085528 <__ieee754_sqrt+0x270>
 1085478:	0015883a 	mov	r10,zero
 108547c:	4020d2fa 	srli	r16,r8,11
 1085480:	52bffac4 	addi	r10,r10,-21
 1085484:	4010957a 	slli	r8,r8,21
 1085488:	803ffc26 	beq	r16,zero,108547c <__ieee754_sqrt+0x1c4>
 108548c:	8080042c 	andhi	r2,r16,16
 1085490:	1000211e 	bne	r2,zero,1085518 <__ieee754_sqrt+0x260>
 1085494:	0005883a 	mov	r2,zero
 1085498:	8421883a 	add	r16,r16,r16
 108549c:	80c0042c 	andhi	r3,r16,16
 10854a0:	10800044 	addi	r2,r2,1
 10854a4:	183ffc26 	beq	r3,zero,1085498 <__ieee754_sqrt+0x1e0>
 10854a8:	01000044 	movi	r4,1
 10854ac:	00c00804 	movi	r3,32
 10854b0:	2089c83a 	sub	r4,r4,r2
 10854b4:	1887c83a 	sub	r3,r3,r2
 10854b8:	40c6d83a 	srl	r3,r8,r3
 10854bc:	5115883a 	add	r10,r10,r4
 10854c0:	4090983a 	sll	r8,r8,r2
 10854c4:	80e0b03a 	or	r16,r16,r3
 10854c8:	003f8806 	br	10852ec <__ieee754_sqrt+0x34>
 10854cc:	200d883a 	mov	r6,r4
 10854d0:	280f883a 	mov	r7,r5
 10854d4:	10879cc0 	call	10879cc <__muldf3>
 10854d8:	1009883a 	mov	r4,r2
 10854dc:	180b883a 	mov	r5,r3
 10854e0:	880d883a 	mov	r6,r17
 10854e4:	800f883a 	mov	r7,r16
 10854e8:	108656c0 	call	108656c <__adddf3>
 10854ec:	003fce06 	br	1085428 <__ieee754_sqrt+0x170>
 10854f0:	2005883a 	mov	r2,r4
 10854f4:	2807883a 	mov	r3,r5
 10854f8:	003fcb06 	br	1085428 <__ieee754_sqrt+0x170>
 10854fc:	583fb30e 	bge	r11,zero,10853cc <__ieee754_sqrt+0x114>
 1085500:	0005883a 	mov	r2,zero
 1085504:	2819883a 	mov	r12,r5
 1085508:	003fab06 	br	10853b8 <__ieee754_sqrt+0x100>
 108550c:	4a400044 	addi	r9,r9,1
 1085510:	0005883a 	mov	r2,zero
 1085514:	003fbd06 	br	108540c <__ieee754_sqrt+0x154>
 1085518:	00c00804 	movi	r3,32
 108551c:	01000044 	movi	r4,1
 1085520:	0005883a 	mov	r2,zero
 1085524:	003fe406 	br	10854b8 <__ieee754_sqrt+0x200>
 1085528:	200d883a 	mov	r6,r4
 108552c:	280f883a 	mov	r7,r5
 1085530:	10882380 	call	1088238 <__subdf3>
 1085534:	1009883a 	mov	r4,r2
 1085538:	180b883a 	mov	r5,r3
 108553c:	100d883a 	mov	r6,r2
 1085540:	180f883a 	mov	r7,r3
 1085544:	1086e080 	call	1086e08 <__divdf3>
 1085548:	003fb706 	br	1085428 <__ieee754_sqrt+0x170>

0108554c <atan>:
 108554c:	defff704 	addi	sp,sp,-36
 1085550:	dc400115 	stw	r17,4(sp)
 1085554:	04600034 	movhi	r17,32768
 1085558:	8c7fffc4 	addi	r17,r17,-1
 108555c:	00910434 	movhi	r2,17424
 1085560:	dc800215 	stw	r18,8(sp)
 1085564:	dc000015 	stw	r16,0(sp)
 1085568:	dfc00815 	stw	ra,32(sp)
 108556c:	ddc00715 	stw	r23,28(sp)
 1085570:	dd800615 	stw	r22,24(sp)
 1085574:	dd400515 	stw	r21,20(sp)
 1085578:	dd000415 	stw	r20,16(sp)
 108557c:	dcc00315 	stw	r19,12(sp)
 1085580:	2c62703a 	and	r17,r5,r17
 1085584:	10bfffc4 	addi	r2,r2,-1
 1085588:	2821883a 	mov	r16,r5
 108558c:	2025883a 	mov	r18,r4
 1085590:	1440090e 	bge	r2,r17,10855b8 <atan+0x6c>
 1085594:	009ffc34 	movhi	r2,32752
 1085598:	1440bf16 	blt	r2,r17,1085898 <atan+0x34c>
 108559c:	8880bd26 	beq	r17,r2,1085894 <atan+0x348>
 10855a0:	00951134 	movhi	r2,21572
 10855a4:	108b4604 	addi	r2,r2,11544
 10855a8:	0400fc0e 	bge	zero,r16,108599c <atan+0x450>
 10855ac:	00cffe74 	movhi	r3,16377
 10855b0:	18c87ec4 	addi	r3,r3,8699
 10855b4:	0000bd06 	br	10858ac <atan+0x360>
 10855b8:	008ff734 	movhi	r2,16348
 10855bc:	10bfffc4 	addi	r2,r2,-1
 10855c0:	282b883a 	mov	r21,r5
 10855c4:	1440d216 	blt	r2,r17,1085910 <atan+0x3c4>
 10855c8:	008f8834 	movhi	r2,15904
 10855cc:	10bfffc4 	addi	r2,r2,-1
 10855d0:	1440c10e 	bge	r2,r17,10858d8 <atan+0x38c>
 10855d4:	053fffc4 	movi	r20,-1
 10855d8:	9009883a 	mov	r4,r18
 10855dc:	800b883a 	mov	r5,r16
 10855e0:	900d883a 	mov	r6,r18
 10855e4:	800f883a 	mov	r7,r16
 10855e8:	10879cc0 	call	10879cc <__muldf3>
 10855ec:	1009883a 	mov	r4,r2
 10855f0:	180b883a 	mov	r5,r3
 10855f4:	100d883a 	mov	r6,r2
 10855f8:	180f883a 	mov	r7,r3
 10855fc:	102f883a 	mov	r23,r2
 1085600:	182d883a 	mov	r22,r3
 1085604:	10879cc0 	call	10879cc <__muldf3>
 1085608:	01b8c8f4 	movhi	r6,58147
 108560c:	01cfe474 	movhi	r7,16273
 1085610:	1009883a 	mov	r4,r2
 1085614:	180b883a 	mov	r5,r3
 1085618:	31b68444 	addi	r6,r6,-9711
 108561c:	39eb4e84 	addi	r7,r7,-21190
 1085620:	1027883a 	mov	r19,r2
 1085624:	1823883a 	mov	r17,r3
 1085628:	10879cc0 	call	10879cc <__muldf3>
 108562c:	01891db4 	movhi	r6,9334
 1085630:	01cfea74 	movhi	r7,16297
 1085634:	1009883a 	mov	r4,r2
 1085638:	180b883a 	mov	r5,r3
 108563c:	31837ac4 	addi	r6,r6,3563
 1085640:	39ded2c4 	addi	r7,r7,31563
 1085644:	108656c0 	call	108656c <__adddf3>
 1085648:	1009883a 	mov	r4,r2
 108564c:	180b883a 	mov	r5,r3
 1085650:	980d883a 	mov	r6,r19
 1085654:	880f883a 	mov	r7,r17
 1085658:	10879cc0 	call	10879cc <__muldf3>
 108565c:	01a83434 	movhi	r6,41168
 1085660:	01cfec74 	movhi	r7,16305
 1085664:	1009883a 	mov	r4,r2
 1085668:	180b883a 	mov	r5,r3
 108566c:	318f5444 	addi	r6,r6,15697
 1085670:	39c35984 	addi	r7,r7,3430
 1085674:	108656c0 	call	108656c <__adddf3>
 1085678:	1009883a 	mov	r4,r2
 108567c:	180b883a 	mov	r5,r3
 1085680:	980d883a 	mov	r6,r19
 1085684:	880f883a 	mov	r7,r17
 1085688:	10879cc0 	call	10879cc <__muldf3>
 108568c:	01b15334 	movhi	r6,50508
 1085690:	01cfedf4 	movhi	r7,16311
 1085694:	1009883a 	mov	r4,r2
 1085698:	180b883a 	mov	r5,r3
 108569c:	31881b84 	addi	r6,r6,8302
 10856a0:	39d17344 	addi	r7,r7,17869
 10856a4:	108656c0 	call	108656c <__adddf3>
 10856a8:	1009883a 	mov	r4,r2
 10856ac:	180b883a 	mov	r5,r3
 10856b0:	980d883a 	mov	r6,r19
 10856b4:	880f883a 	mov	r7,r17
 10856b8:	10879cc0 	call	10879cc <__muldf3>
 10856bc:	01a48074 	movhi	r6,37377
 10856c0:	01cff0b4 	movhi	r7,16322
 10856c4:	1009883a 	mov	r4,r2
 10856c8:	180b883a 	mov	r5,r3
 10856cc:	31a0ffc4 	addi	r6,r6,-31745
 10856d0:	39d24904 	addi	r7,r7,18724
 10856d4:	108656c0 	call	108656c <__adddf3>
 10856d8:	1009883a 	mov	r4,r2
 10856dc:	180b883a 	mov	r5,r3
 10856e0:	980d883a 	mov	r6,r19
 10856e4:	880f883a 	mov	r7,r17
 10856e8:	10879cc0 	call	10879cc <__muldf3>
 10856ec:	01955574 	movhi	r6,21845
 10856f0:	01cff574 	movhi	r7,16341
 10856f4:	1009883a 	mov	r4,r2
 10856f8:	180b883a 	mov	r5,r3
 10856fc:	31954344 	addi	r6,r6,21773
 1085700:	39d55544 	addi	r7,r7,21845
 1085704:	108656c0 	call	108656c <__adddf3>
 1085708:	b80d883a 	mov	r6,r23
 108570c:	b00f883a 	mov	r7,r22
 1085710:	1009883a 	mov	r4,r2
 1085714:	180b883a 	mov	r5,r3
 1085718:	10879cc0 	call	10879cc <__muldf3>
 108571c:	018b1ab4 	movhi	r6,11370
 1085720:	01efe8f4 	movhi	r7,49059
 1085724:	9809883a 	mov	r4,r19
 1085728:	880b883a 	mov	r5,r17
 108572c:	319b0bc4 	addi	r6,r6,27695
 1085730:	39ed1104 	addi	r7,r7,-19388
 1085734:	102f883a 	mov	r23,r2
 1085738:	182d883a 	mov	r22,r3
 108573c:	10879cc0 	call	10879cc <__muldf3>
 1085740:	0194b7f4 	movhi	r6,21215
 1085744:	01cfebb4 	movhi	r7,16302
 1085748:	1009883a 	mov	r4,r2
 108574c:	180b883a 	mov	r5,r3
 1085750:	31bf6684 	addi	r6,r6,-614
 1085754:	39f78b44 	addi	r7,r7,-8659
 1085758:	10882380 	call	1088238 <__subdf3>
 108575c:	1009883a 	mov	r4,r2
 1085760:	180b883a 	mov	r5,r3
 1085764:	980d883a 	mov	r6,r19
 1085768:	880f883a 	mov	r7,r17
 108576c:	10879cc0 	call	10879cc <__muldf3>
 1085770:	01abdd74 	movhi	r6,44917
 1085774:	01cfed34 	movhi	r7,16308
 1085778:	1009883a 	mov	r4,r2
 108577c:	180b883a 	mov	r5,r3
 1085780:	31a69b44 	addi	r6,r6,-26003
 1085784:	39ec3c84 	addi	r7,r7,-20238
 1085788:	10882380 	call	1088238 <__subdf3>
 108578c:	1009883a 	mov	r4,r2
 1085790:	180b883a 	mov	r5,r3
 1085794:	980d883a 	mov	r6,r19
 1085798:	880f883a 	mov	r7,r17
 108579c:	10879cc0 	call	10879cc <__muldf3>
 10857a0:	01bf88f4 	movhi	r6,65059
 10857a4:	01cfef34 	movhi	r7,16316
 10857a8:	1009883a 	mov	r4,r2
 10857ac:	180b883a 	mov	r5,r3
 10857b0:	31859c44 	addi	r6,r6,5745
 10857b4:	39dc7184 	addi	r7,r7,29126
 10857b8:	10882380 	call	1088238 <__subdf3>
 10857bc:	1009883a 	mov	r4,r2
 10857c0:	180b883a 	mov	r5,r3
 10857c4:	980d883a 	mov	r6,r19
 10857c8:	880f883a 	mov	r7,r17
 10857cc:	10879cc0 	call	10879cc <__muldf3>
 10857d0:	01a66674 	movhi	r6,39321
 10857d4:	01cff2b4 	movhi	r7,16330
 10857d8:	1009883a 	mov	r4,r2
 10857dc:	180b883a 	mov	r5,r3
 10857e0:	31baf104 	addi	r6,r6,-5180
 10857e4:	39e66644 	addi	r7,r7,-26215
 10857e8:	10882380 	call	1088238 <__subdf3>
 10857ec:	980d883a 	mov	r6,r19
 10857f0:	880f883a 	mov	r7,r17
 10857f4:	1009883a 	mov	r4,r2
 10857f8:	180b883a 	mov	r5,r3
 10857fc:	10879cc0 	call	10879cc <__muldf3>
 1085800:	100d883a 	mov	r6,r2
 1085804:	00bfffc4 	movi	r2,-1
 1085808:	180f883a 	mov	r7,r3
 108580c:	a0806626 	beq	r20,r2,10859a8 <atan+0x45c>
 1085810:	b809883a 	mov	r4,r23
 1085814:	b00b883a 	mov	r5,r22
 1085818:	108656c0 	call	108656c <__adddf3>
 108581c:	1009883a 	mov	r4,r2
 1085820:	180b883a 	mov	r5,r3
 1085824:	900d883a 	mov	r6,r18
 1085828:	800f883a 	mov	r7,r16
 108582c:	10879cc0 	call	10879cc <__muldf3>
 1085830:	a02890fa 	slli	r20,r20,3
 1085834:	1009883a 	mov	r4,r2
 1085838:	044042b4 	movhi	r17,266
 108583c:	008042b4 	movhi	r2,266
 1085840:	10816004 	addi	r2,r2,1408
 1085844:	8c416804 	addi	r17,r17,1440
 1085848:	8d23883a 	add	r17,r17,r20
 108584c:	1529883a 	add	r20,r2,r20
 1085850:	a1800017 	ldw	r6,0(r20)
 1085854:	a1c00117 	ldw	r7,4(r20)
 1085858:	180b883a 	mov	r5,r3
 108585c:	10882380 	call	1088238 <__subdf3>
 1085860:	1009883a 	mov	r4,r2
 1085864:	180b883a 	mov	r5,r3
 1085868:	900d883a 	mov	r6,r18
 108586c:	800f883a 	mov	r7,r16
 1085870:	10882380 	call	1088238 <__subdf3>
 1085874:	89000017 	ldw	r4,0(r17)
 1085878:	89400117 	ldw	r5,4(r17)
 108587c:	100d883a 	mov	r6,r2
 1085880:	180f883a 	mov	r7,r3
 1085884:	10882380 	call	1088238 <__subdf3>
 1085888:	a800080e 	bge	r21,zero,10858ac <atan+0x360>
 108588c:	18e0003c 	xorhi	r3,r3,32768
 1085890:	00000606 	br	10858ac <atan+0x360>
 1085894:	203f4226 	beq	r4,zero,10855a0 <atan+0x54>
 1085898:	9009883a 	mov	r4,r18
 108589c:	800b883a 	mov	r5,r16
 10858a0:	900d883a 	mov	r6,r18
 10858a4:	800f883a 	mov	r7,r16
 10858a8:	108656c0 	call	108656c <__adddf3>
 10858ac:	dfc00817 	ldw	ra,32(sp)
 10858b0:	ddc00717 	ldw	r23,28(sp)
 10858b4:	dd800617 	ldw	r22,24(sp)
 10858b8:	dd400517 	ldw	r21,20(sp)
 10858bc:	dd000417 	ldw	r20,16(sp)
 10858c0:	dcc00317 	ldw	r19,12(sp)
 10858c4:	dc800217 	ldw	r18,8(sp)
 10858c8:	dc400117 	ldw	r17,4(sp)
 10858cc:	dc000017 	ldw	r16,0(sp)
 10858d0:	dec00904 	addi	sp,sp,36
 10858d4:	f800283a 	ret
 10858d8:	01a20034 	movhi	r6,34816
 10858dc:	01df8e34 	movhi	r7,32312
 10858e0:	319d6704 	addi	r6,r6,30108
 10858e4:	39f90f04 	addi	r7,r7,-7108
 10858e8:	108656c0 	call	108656c <__adddf3>
 10858ec:	1009883a 	mov	r4,r2
 10858f0:	180b883a 	mov	r5,r3
 10858f4:	000d883a 	mov	r6,zero
 10858f8:	01cffc34 	movhi	r7,16368
 10858fc:	108780c0 	call	108780c <__gedf2>
 1085900:	00bf340e 	bge	zero,r2,10855d4 <atan+0x88>
 1085904:	9005883a 	mov	r2,r18
 1085908:	8007883a 	mov	r3,r16
 108590c:	003fe706 	br	10858ac <atan+0x360>
 1085910:	1085acc0 	call	1085acc <fabs>
 1085914:	1025883a 	mov	r18,r2
 1085918:	008ffcf4 	movhi	r2,16371
 108591c:	10bfffc4 	addi	r2,r2,-1
 1085920:	1821883a 	mov	r16,r3
 1085924:	14402e16 	blt	r2,r17,10859e0 <atan+0x494>
 1085928:	008ff9b4 	movhi	r2,16358
 108592c:	10bfffc4 	addi	r2,r2,-1
 1085930:	14405116 	blt	r2,r17,1085a78 <atan+0x52c>
 1085934:	900d883a 	mov	r6,r18
 1085938:	9009883a 	mov	r4,r18
 108593c:	180f883a 	mov	r7,r3
 1085940:	180b883a 	mov	r5,r3
 1085944:	108656c0 	call	108656c <__adddf3>
 1085948:	1009883a 	mov	r4,r2
 108594c:	180b883a 	mov	r5,r3
 1085950:	000d883a 	mov	r6,zero
 1085954:	01cffc34 	movhi	r7,16368
 1085958:	10882380 	call	1088238 <__subdf3>
 108595c:	9009883a 	mov	r4,r18
 1085960:	800b883a 	mov	r5,r16
 1085964:	000d883a 	mov	r6,zero
 1085968:	01d00034 	movhi	r7,16384
 108596c:	1027883a 	mov	r19,r2
 1085970:	1823883a 	mov	r17,r3
 1085974:	108656c0 	call	108656c <__adddf3>
 1085978:	9809883a 	mov	r4,r19
 108597c:	880b883a 	mov	r5,r17
 1085980:	100d883a 	mov	r6,r2
 1085984:	180f883a 	mov	r7,r3
 1085988:	1086e080 	call	1086e08 <__divdf3>
 108598c:	1025883a 	mov	r18,r2
 1085990:	1821883a 	mov	r16,r3
 1085994:	0029883a 	mov	r20,zero
 1085998:	003f0f06 	br	10855d8 <atan+0x8c>
 108599c:	00effe74 	movhi	r3,49145
 10859a0:	18c87ec4 	addi	r3,r3,8699
 10859a4:	003fc106 	br	10858ac <atan+0x360>
 10859a8:	b809883a 	mov	r4,r23
 10859ac:	b00b883a 	mov	r5,r22
 10859b0:	108656c0 	call	108656c <__adddf3>
 10859b4:	900d883a 	mov	r6,r18
 10859b8:	800f883a 	mov	r7,r16
 10859bc:	1009883a 	mov	r4,r2
 10859c0:	180b883a 	mov	r5,r3
 10859c4:	10879cc0 	call	10879cc <__muldf3>
 10859c8:	9009883a 	mov	r4,r18
 10859cc:	800b883a 	mov	r5,r16
 10859d0:	100d883a 	mov	r6,r2
 10859d4:	180f883a 	mov	r7,r3
 10859d8:	10882380 	call	1088238 <__subdf3>
 10859dc:	003fb306 	br	10858ac <atan+0x360>
 10859e0:	009000f4 	movhi	r2,16387
 10859e4:	109fffc4 	addi	r2,r2,32767
 10859e8:	14401a16 	blt	r2,r17,1085a54 <atan+0x508>
 10859ec:	9009883a 	mov	r4,r18
 10859f0:	000d883a 	mov	r6,zero
 10859f4:	01cffe34 	movhi	r7,16376
 10859f8:	180b883a 	mov	r5,r3
 10859fc:	10882380 	call	1088238 <__subdf3>
 1085a00:	9009883a 	mov	r4,r18
 1085a04:	800b883a 	mov	r5,r16
 1085a08:	000d883a 	mov	r6,zero
 1085a0c:	01cffe34 	movhi	r7,16376
 1085a10:	1027883a 	mov	r19,r2
 1085a14:	1823883a 	mov	r17,r3
 1085a18:	10879cc0 	call	10879cc <__muldf3>
 1085a1c:	1009883a 	mov	r4,r2
 1085a20:	180b883a 	mov	r5,r3
 1085a24:	000d883a 	mov	r6,zero
 1085a28:	01cffc34 	movhi	r7,16368
 1085a2c:	108656c0 	call	108656c <__adddf3>
 1085a30:	9809883a 	mov	r4,r19
 1085a34:	880b883a 	mov	r5,r17
 1085a38:	100d883a 	mov	r6,r2
 1085a3c:	180f883a 	mov	r7,r3
 1085a40:	1086e080 	call	1086e08 <__divdf3>
 1085a44:	1025883a 	mov	r18,r2
 1085a48:	1821883a 	mov	r16,r3
 1085a4c:	05000084 	movi	r20,2
 1085a50:	003ee106 	br	10855d8 <atan+0x8c>
 1085a54:	900d883a 	mov	r6,r18
 1085a58:	0009883a 	mov	r4,zero
 1085a5c:	016ffc34 	movhi	r5,49136
 1085a60:	180f883a 	mov	r7,r3
 1085a64:	1086e080 	call	1086e08 <__divdf3>
 1085a68:	1025883a 	mov	r18,r2
 1085a6c:	1821883a 	mov	r16,r3
 1085a70:	050000c4 	movi	r20,3
 1085a74:	003ed806 	br	10855d8 <atan+0x8c>
 1085a78:	9009883a 	mov	r4,r18
 1085a7c:	000d883a 	mov	r6,zero
 1085a80:	01cffc34 	movhi	r7,16368
 1085a84:	180b883a 	mov	r5,r3
 1085a88:	10882380 	call	1088238 <__subdf3>
 1085a8c:	9009883a 	mov	r4,r18
 1085a90:	800b883a 	mov	r5,r16
 1085a94:	000d883a 	mov	r6,zero
 1085a98:	01cffc34 	movhi	r7,16368
 1085a9c:	1027883a 	mov	r19,r2
 1085aa0:	1823883a 	mov	r17,r3
 1085aa4:	108656c0 	call	108656c <__adddf3>
 1085aa8:	9809883a 	mov	r4,r19
 1085aac:	880b883a 	mov	r5,r17
 1085ab0:	100d883a 	mov	r6,r2
 1085ab4:	180f883a 	mov	r7,r3
 1085ab8:	1086e080 	call	1086e08 <__divdf3>
 1085abc:	1025883a 	mov	r18,r2
 1085ac0:	1821883a 	mov	r16,r3
 1085ac4:	05000044 	movi	r20,1
 1085ac8:	003ec306 	br	10855d8 <atan+0x8c>

01085acc <fabs>:
 1085acc:	00e00034 	movhi	r3,32768
 1085ad0:	18ffffc4 	addi	r3,r3,-1
 1085ad4:	2005883a 	mov	r2,r4
 1085ad8:	28c6703a 	and	r3,r5,r3
 1085adc:	f800283a 	ret

01085ae0 <finite>:
 1085ae0:	00a00034 	movhi	r2,32768
 1085ae4:	10bfffc4 	addi	r2,r2,-1
 1085ae8:	288a703a 	and	r5,r5,r2
 1085aec:	00e00434 	movhi	r3,32784
 1085af0:	28c5883a 	add	r2,r5,r3
 1085af4:	1004d7fa 	srli	r2,r2,31
 1085af8:	f800283a 	ret

01085afc <__fpclassifyd>:
 1085afc:	00a00034 	movhi	r2,32768
 1085b00:	10bfffc4 	addi	r2,r2,-1
 1085b04:	2884703a 	and	r2,r5,r2
 1085b08:	10000726 	beq	r2,zero,1085b28 <__fpclassifyd+0x2c>
 1085b0c:	00fffc34 	movhi	r3,65520
 1085b10:	019ff834 	movhi	r6,32736
 1085b14:	28c7883a 	add	r3,r5,r3
 1085b18:	31bfffc4 	addi	r6,r6,-1
 1085b1c:	30c00536 	bltu	r6,r3,1085b34 <__fpclassifyd+0x38>
 1085b20:	00800104 	movi	r2,4
 1085b24:	f800283a 	ret
 1085b28:	2000021e 	bne	r4,zero,1085b34 <__fpclassifyd+0x38>
 1085b2c:	00800084 	movi	r2,2
 1085b30:	f800283a 	ret
 1085b34:	00dffc34 	movhi	r3,32752
 1085b38:	019ff834 	movhi	r6,32736
 1085b3c:	28cb883a 	add	r5,r5,r3
 1085b40:	31bfffc4 	addi	r6,r6,-1
 1085b44:	317ff62e 	bgeu	r6,r5,1085b20 <__fpclassifyd+0x24>
 1085b48:	01400434 	movhi	r5,16
 1085b4c:	297fffc4 	addi	r5,r5,-1
 1085b50:	28800236 	bltu	r5,r2,1085b5c <__fpclassifyd+0x60>
 1085b54:	008000c4 	movi	r2,3
 1085b58:	f800283a 	ret
 1085b5c:	10c00226 	beq	r2,r3,1085b68 <__fpclassifyd+0x6c>
 1085b60:	0005883a 	mov	r2,zero
 1085b64:	f800283a 	ret
 1085b68:	2005003a 	cmpeq	r2,r4,zero
 1085b6c:	f800283a 	ret

01085b70 <matherr>:
 1085b70:	0005883a 	mov	r2,zero
 1085b74:	f800283a 	ret

01085b78 <nan>:
 1085b78:	0005883a 	mov	r2,zero
 1085b7c:	00dffe34 	movhi	r3,32760
 1085b80:	f800283a 	ret

01085b84 <rint>:
 1085b84:	2813d53a 	srai	r9,r5,20
 1085b88:	defff904 	addi	sp,sp,-28
 1085b8c:	dc400315 	stw	r17,12(sp)
 1085b90:	4a41ffcc 	andi	r9,r9,2047
 1085b94:	dfc00615 	stw	ra,24(sp)
 1085b98:	dcc00515 	stw	r19,20(sp)
 1085b9c:	dc800415 	stw	r18,16(sp)
 1085ba0:	dc000215 	stw	r16,8(sp)
 1085ba4:	02c004c4 	movi	r11,19
 1085ba8:	4abf0044 	addi	r10,r9,-1023
 1085bac:	2811883a 	mov	r8,r5
 1085bb0:	2005883a 	mov	r2,r4
 1085bb4:	280f883a 	mov	r7,r5
 1085bb8:	200d883a 	mov	r6,r4
 1085bbc:	2822d7fa 	srli	r17,r5,31
 1085bc0:	5a801316 	blt	r11,r10,1085c10 <rint+0x8c>
 1085bc4:	50003c16 	blt	r10,zero,1085cb8 <rint+0x134>
 1085bc8:	00c00434 	movhi	r3,16
